ARM Linker, 5.03 [Build 76] [MDK-ARM Professional]

==============================================================================

Section Cross References

    cfal96x64x16.o(i.CFAL96x64x16Init) refers to cfal96x64x16.o(i.CFAL96x64x16WriteCommand) for CFAL96x64x16WriteCommand
    cfal96x64x16.o(i.CFAL96x64x16Init) refers to cfal96x64x16.o(i.CFAL96x64x16RectFill) for CFAL96x64x16RectFill
    cfal96x64x16.o(i.CFAL96x64x16Init) refers to cfal96x64x16.o(.data) for g_ui8DisplayInitCommands
    cfal96x64x16.o(i.CFAL96x64x16LineDrawH) refers to cfal96x64x16.o(i.CFAL96x64x16WriteCommand) for CFAL96x64x16WriteCommand
    cfal96x64x16.o(i.CFAL96x64x16LineDrawH) refers to cfal96x64x16.o(i.CFAL96x64x16WriteData) for CFAL96x64x16WriteData
    cfal96x64x16.o(i.CFAL96x64x16LineDrawV) refers to cfal96x64x16.o(i.CFAL96x64x16WriteCommand) for CFAL96x64x16WriteCommand
    cfal96x64x16.o(i.CFAL96x64x16LineDrawV) refers to cfal96x64x16.o(i.CFAL96x64x16WriteData) for CFAL96x64x16WriteData
    cfal96x64x16.o(i.CFAL96x64x16PixelDraw) refers to cfal96x64x16.o(i.CFAL96x64x16WriteCommand) for CFAL96x64x16WriteCommand
    cfal96x64x16.o(i.CFAL96x64x16PixelDraw) refers to cfal96x64x16.o(i.CFAL96x64x16WriteData) for CFAL96x64x16WriteData
    cfal96x64x16.o(i.CFAL96x64x16PixelDrawMultiple) refers to cfal96x64x16.o(i.CFAL96x64x16WriteCommand) for CFAL96x64x16WriteCommand
    cfal96x64x16.o(i.CFAL96x64x16PixelDrawMultiple) refers to cfal96x64x16.o(i.CFAL96x64x16WriteData) for CFAL96x64x16WriteData
    cfal96x64x16.o(i.CFAL96x64x16RectFill) refers to cfal96x64x16.o(i.CFAL96x64x16LineDrawH) for CFAL96x64x16LineDrawH
    cfal96x64x16.o(.constdata) refers to cfal96x64x16.o(i.CFAL96x64x16PixelDraw) for CFAL96x64x16PixelDraw
    cfal96x64x16.o(.constdata) refers to cfal96x64x16.o(i.CFAL96x64x16PixelDrawMultiple) for CFAL96x64x16PixelDrawMultiple
    cfal96x64x16.o(.constdata) refers to cfal96x64x16.o(i.CFAL96x64x16LineDrawH) for CFAL96x64x16LineDrawH
    cfal96x64x16.o(.constdata) refers to cfal96x64x16.o(i.CFAL96x64x16LineDrawV) for CFAL96x64x16LineDrawV
    cfal96x64x16.o(.constdata) refers to cfal96x64x16.o(i.CFAL96x64x16RectFill) for CFAL96x64x16RectFill
    cfal96x64x16.o(.constdata) refers to cfal96x64x16.o(i.CFAL96x64x16ColorTranslate) for CFAL96x64x16ColorTranslate
    cfal96x64x16.o(.constdata) refers to cfal96x64x16.o(i.CFAL96x64x16Flush) for CFAL96x64x16Flush
    startup_rvmdk.o(RESET) refers to startup_rvmdk.o(STACK) for StackMem
    startup_rvmdk.o(RESET) refers to scheduler.o(i.SchedulerSysTickIntHandler) for SchedulerSysTickIntHandler
    startup_rvmdk.o(RESET) refers to uartconfiguration.o(i.UART0IntHandler) for UART0IntHandler
    startup_rvmdk.o(RESET) refers to uartconfiguration.o(i.UART1IntHandler) for UART1IntHandler
    startup_rvmdk.o(RESET) refers to main.o(i.WatchdogIntHandler) for WatchdogIntHandler
    startup_rvmdk.o(RESET) refers to gsm_fona808.o(i.TIMER0A_Handler) for TIMER0A_Handler
    startup_rvmdk.o(RESET) refers to gsm_fona808.o(i.PortHIntHandler) for PortHIntHandler
    startup_rvmdk.o(RESET) refers to main.o(i.WTimer0IntHandler) for WTimer0IntHandler
    startup_rvmdk.o(RESET) refers to entry.o(.ARM.Collect$$$$00000000) for __main
    main.o(i.GPSWork) refers to gps_fona.o(i.GPSPower) for GPSPower
    main.o(i.GPSWork) refers to gps_fona.o(i.GPSFix) for GPSFix
    main.o(i.GPSWork) refers to gps_fona.o(i.GPSGetData) for GPSGetData
    main.o(i.GPSWork) refers to main.o(i.composeDataMsg) for composeDataMsg
    main.o(i.GPSWork) refers to main.o(i.composeMessage) for composeMessage
    main.o(i.GPSWork) refers to ustdlib.o(i.usprintf) for usprintf
    main.o(i.GPSWork) refers to strfunc.o(i.stringLength) for stringLength
    main.o(i.GPSWork) refers to uartconfiguration.o(i.UARTSend) for UARTSend
    main.o(i.GPSWork) refers to sd_card.o(i.logData) for logData
    main.o(i.GPSWork) refers to main.o(.bss) for sFlag
    main.o(i.GSMWork) refers to gsm_fona808.o(i.GSMFullFunc) for GSMFullFunc
    main.o(i.GSMWork) refers to gsm_fona808.o(i.SimCardDetect) for SimCardDetect
    main.o(i.GSMWork) refers to gsm_fona808.o(i.GSMNetworkReg) for GSMNetworkReg
    main.o(i.GSMWork) refers to gsm_fona808.o(i.GSMSignalQlty) for GSMSignalQlty
    main.o(i.GSMWork) refers to gsm_fona808.o(i.sendSMS) for sendSMS
    main.o(i.GSMWork) refers to ustdlib.o(i.usprintf) for usprintf
    main.o(i.GSMWork) refers to strfunc.o(i.stringLength) for stringLength
    main.o(i.GSMWork) refers to uartconfiguration.o(i.UARTSend) for UARTSend
    main.o(i.GSMWork) refers to sd_card.o(i.logData) for logData
    main.o(i.GSMWork) refers to gsm_fona808.o(i.sendDataMsg) for sendDataMsg
    main.o(i.GSMWork) refers to gsm_fona808.o(i.GSMMinFunc) for GSMMinFunc
    main.o(i.GSMWork) refers to main.o(.bss) for sFlag
    main.o(i.GSMWork) refers to gsm_fona808.o(.constdata) for GSMStats
    main.o(i.WTimer0IntHandler) refers to ustdlib.o(i.usprintf) for usprintf
    main.o(i.WTimer0IntHandler) refers to strfunc.o(i.stringLength) for stringLength
    main.o(i.WTimer0IntHandler) refers to uartconfiguration.o(i.UARTSend) for UARTSend
    main.o(i.WTimer0IntHandler) refers to main.o(.data) for timerCounter
    main.o(i.WTimer0IntHandler) refers to main.o(.bss) for tmstrr
    main.o(i.WatchdogIntHandler) refers to systick.o(i.SysTick_delay_us) for SysTick_delay_us
    main.o(i.buttonHandler) refers to buttons.o(i.ButtonsPoll) for ButtonsPoll
    main.o(i.buttonHandler) refers to main.o(i.dispUpdate) for dispUpdate
    main.o(i.buttonHandler) refers to main.o(.data) for bSelectPressed
    main.o(i.composeDataMsg) refers to strfunc.o(i.stringAppend) for stringAppend
    main.o(i.composeDataMsg) refers to main.o(.bss) for URL
    main.o(i.composeDataMsg) refers to main.o(.constdata) for .constdata
    main.o(i.composeDataMsg) refers to gps_fona.o(.constdata) for GPSData
    main.o(i.composeMessage) refers to uartconfiguration.o(i.UARTSend) for UARTSend
    main.o(i.composeMessage) refers to memcpya.o(.text) for __aeabi_memcpy4
    main.o(i.composeMessage) refers to strfunc.o(i.stringAppend) for stringAppend
    main.o(i.composeMessage) refers to ustdlib.o(i.usprintf) for usprintf
    main.o(i.composeMessage) refers to strfunc.o(i.stringLength) for stringLength
    main.o(i.composeMessage) refers to main.o(.bss) for msg
    main.o(i.composeMessage) refers to gps_fona.o(.constdata) for GPSData
    main.o(i.configHibernate) refers to hibernate.o(i.HibernateIsActive) for HibernateIsActive
    main.o(i.configHibernate) refers to hibernate.o(i.HibernateIntStatus) for HibernateIntStatus
    main.o(i.configHibernate) refers to hibernate.o(i.HibernateIntClear) for HibernateIntClear
    main.o(i.configHibernate) refers to sysctl.o(i.SysCtlPeripheralEnable) for SysCtlPeripheralEnable
    main.o(i.configHibernate) refers to sysctl.o(i.SysCtlClockGet) for SysCtlClockGet
    main.o(i.configHibernate) refers to hibernate.o(i.HibernateEnableExpClk) for HibernateEnableExpClk
    main.o(i.configHibernate) refers to systick.o(i.SysTick_delay_ms) for SysTick_delay_ms
    main.o(i.configHibernate) refers to hibernate.o(i.HibernateClockConfig) for HibernateClockConfig
    main.o(i.configHibernate) refers to hibernate.o(i.HibernateRTCEnable) for HibernateRTCEnable
    main.o(i.configHibernate) refers to hibernate.o(i.HibernateRTCSet) for HibernateRTCSet
    main.o(i.configHibernate) refers to hibernate.o(i.HibernateDataSet) for HibernateDataSet
    main.o(i.configHibernate) refers to hibernate.o(i.HibernateWakeSet) for HibernateWakeSet
    main.o(i.configHibernate) refers to hibernate.o(i.HibernateRTCTrimSet) for HibernateRTCTrimSet
    main.o(i.configHibernate) refers to hibernate.o(i.HibernateRTCGet) for HibernateRTCGet
    main.o(i.configHibernate) refers to hibernate.o(i.HibernateRTCMatchSet) for HibernateRTCMatchSet
    main.o(i.configWtimer) refers to timer.o(i.TimerClockSourceSet) for TimerClockSourceSet
    main.o(i.dispClear) refers to rectangle.o(i.GrRectFill) for GrRectFill
    main.o(i.dispClear) refers to main.o(.bss) for sFlag
    main.o(i.dispTitle) refers to rectangle.o(i.GrRectFill) for GrRectFill
    main.o(i.dispTitle) refers to string.o(i.GrContextFontSet) for GrContextFontSet
    main.o(i.dispTitle) refers to string.o(i.GrFontBaselineGet) for GrFontBaselineGet
    main.o(i.dispTitle) refers to string.o(i.GrStringWidthGet) for GrStringWidthGet
    main.o(i.dispTitle) refers to string.o(i.GrStringDraw) for GrStringDraw
    main.o(i.dispTitle) refers to main.o(.bss) for sFlag
    main.o(i.dispTitle) refers to fontfixed6x8.o(.constdata) for g_sFontFixed6x8
    main.o(i.dispUpdate) refers to main.o(i.dispClear) for dispClear
    main.o(i.dispUpdate) refers to main.o(i.dispTitle) for dispTitle
    main.o(i.dispUpdate) refers to image.o(i.GrImageDraw) for GrImageDraw
    main.o(i.dispUpdate) refers to string.o(i.GrFontBaselineGet) for GrFontBaselineGet
    main.o(i.dispUpdate) refers to string.o(i.GrStringWidthGet) for GrStringWidthGet
    main.o(i.dispUpdate) refers to string.o(i.GrStringDraw) for GrStringDraw
    main.o(i.dispUpdate) refers to ustdlib.o(i.usprintf) for usprintf
    main.o(i.dispUpdate) refers to main.o(.bss) for sFlag
    main.o(i.dispUpdate) refers to main.o(.data) for scroll
    main.o(i.dispUpdate) refers to main.o(.constdata) for g_pui8rdsllogo
    main.o(i.dispUpdate) refers to gsm_fona808.o(.constdata) for GSMStats
    main.o(i.dispUpdate) refers to gps_fona.o(.constdata) for GPSStats
    main.o(i.displayInit) refers to cfal96x64x16.o(i.CFAL96x64x16Init) for CFAL96x64x16Init
    main.o(i.displayInit) refers to context.o(i.GrContextInit) for GrContextInit
    main.o(i.displayInit) refers to cfal96x64x16.o(.constdata) for g_sCFAL96x64x16
    main.o(i.displayInit) refers to main.o(.bss) for g_sContext
    main.o(i.flagsSet) refers to gsm_fona808.o(.constdata) for GSMStats
    main.o(i.flagsSet) refers to main.o(.bss) for sFlag
    main.o(i.flagsSet) refers to gps_fona.o(.constdata) for GPSStats
    main.o(i.flagsSet) refers to main.o(.data) for timerCounter
    main.o(i.getTime) refers to memcpya.o(.text) for __aeabi_memcpy4
    main.o(i.getTime) refers to memseta.o(.text) for __aeabi_memclr4
    main.o(i.getTime) refers to ustdlib.o(i.umktime) for umktime
    main.o(i.getTime) refers to hibernate.o(i.HibernateRTCGet) for HibernateRTCGet
    main.o(i.getTime) refers to ustdlib.o(i.ulocaltime) for ulocaltime
    main.o(i.getTime) refers to ustdlib.o(i.usprintf) for usprintf
    main.o(i.getTime) refers to strfunc.o(i.stringAppend) for stringAppend
    main.o(i.getTime) refers to strfunc.o(i.removeInArray) for removeInArray
    main.o(i.getTime) refers to strtoull.o(.text) for strtoull
    main.o(i.getTime) refers to main.o(.constdata) for .constdata
    main.o(i.getTime) refers to main.o(.data) for ui64time
    main.o(i.hibernateActivate) refers to hibernate.o(i.HibernateRequest) for HibernateRequest
    main.o(i.hibernateActivate) refers to main.o(.data) for bSelectPressed
    main.o(i.main) refers to memseta.o(.text) for __aeabi_memclr4
    main.o(i.main) refers to systick.o(i.SysTick_Init) for SysTick_Init
    main.o(i.main) refers to scheduler.o(i.SchedulerInit) for SchedulerInit
    main.o(i.main) refers to main.o(i.configWatchDog) for configWatchDog
    main.o(i.main) refers to uartconfiguration.o(i.configUART) for configUART
    main.o(i.main) refers to buttons.o(i.ButtonsInit) for ButtonsInit
    main.o(i.main) refers to main.o(i.configWtimer) for configWtimer
    main.o(i.main) refers to main.o(i.configHibernate) for configHibernate
    main.o(i.main) refers to main.o(i.displayInit) for displayInit
    main.o(i.main) refers to main.o(i.dispUpdate) for dispUpdate
    main.o(i.main) refers to main.o(i.getTime) for getTime
    main.o(i.main) refers to systick.o(i.SysTick_delay_ms) for SysTick_delay_ms
    main.o(i.main) refers to sd_card.o(i.sdInit) for sdInit
    main.o(i.main) refers to gsm_fona808.o(i.Init_GSM) for Init_GSM
    main.o(i.main) refers to sd_card.o(i.logData) for logData
    main.o(i.main) refers to gsm_fona808.o(i.getBatstat) for getBatstat
    main.o(i.main) refers to main.o(i.GPSWork) for GPSWork
    main.o(i.main) refers to main.o(i.GSMWork) for GSMWork
    main.o(i.main) refers to strfunc.o(i.stringLength) for stringLength
    main.o(i.main) refers to uartconfiguration.o(i.UARTSend) for UARTSend
    main.o(i.main) refers to sd_card.o(i.closeFiles) for closeFiles
    main.o(i.main) refers to main.o(.bss) for sFlag
    main.o(i.main) refers to main.o(.data) for scroll
    main.o(i.main) refers to gsm_fona808.o(.constdata) for GSMStats
    main.o(i.main) refers to main.o(.constdata) for .constdata
    main.o(.data) refers to sd_card.o(i.FatFsTickTimer) for FatFsTickTimer
    main.o(.data) refers to main.o(i.buttonHandler) for buttonHandler
    main.o(.data) refers to main.o(i.flagsSet) for flagsSet
    main.o(.data) refers to main.o(i.dispUpdate) for dispUpdate
    buttons.o(i.ButtonsInit) refers to sysctl.o(i.SysCtlPeripheralEnable) for SysCtlPeripheralEnable
    buttons.o(i.ButtonsInit) refers to gpio.o(i.GPIODirModeSet) for GPIODirModeSet
    buttons.o(i.ButtonsInit) refers to gpio.o(i.GPIOPadConfigSet) for GPIOPadConfigSet
    buttons.o(i.ButtonsInit) refers to gpio.o(i.GPIOPinRead) for GPIOPinRead
    buttons.o(i.ButtonsInit) refers to buttons.o(.data) for g_ui8ButtonStates
    buttons.o(i.ButtonsPoll) refers to gpio.o(i.GPIOPinRead) for GPIOPinRead
    buttons.o(i.ButtonsPoll) refers to buttons.o(.data) for g_ui8ButtonStates
    gsm_fona808.o(i.GSMFullFunc) refers to gsm_fona808.o(i.GSMTimerEnable) for GSMTimerEnable
    gsm_fona808.o(i.GSMFullFunc) refers to uartconfiguration.o(i.responseRead) for responseRead
    gsm_fona808.o(i.GSMFullFunc) refers to uartstdio.o(i.UARTprintf) for UARTprintf
    gsm_fona808.o(i.GSMFullFunc) refers to strfunc.o(i.stringLength) for stringLength
    gsm_fona808.o(i.GSMFullFunc) refers to uartconfiguration.o(i.UARTSend) for UARTSend
    gsm_fona808.o(i.GSMFullFunc) refers to gsm_fona808.o(i.waitAndCheckResp) for waitAndCheckResp
    gsm_fona808.o(i.GSMFullFunc) refers to systick.o(i.SysTick_delay_ms) for SysTick_delay_ms
    gsm_fona808.o(i.GSMFullFunc) refers to gsm_fona808.o(i.GSMTimerDisable) for GSMTimerDisable
    gsm_fona808.o(i.GSMFullFunc) refers to gsm_fona808.o(.bss) for stats
    gsm_fona808.o(i.GSMMinFunc) refers to gsm_fona808.o(i.GSMTimerEnable) for GSMTimerEnable
    gsm_fona808.o(i.GSMMinFunc) refers to uartconfiguration.o(i.responseRead) for responseRead
    gsm_fona808.o(i.GSMMinFunc) refers to uartstdio.o(i.UARTprintf) for UARTprintf
    gsm_fona808.o(i.GSMMinFunc) refers to strfunc.o(i.stringLength) for stringLength
    gsm_fona808.o(i.GSMMinFunc) refers to uartconfiguration.o(i.UARTSend) for UARTSend
    gsm_fona808.o(i.GSMMinFunc) refers to gsm_fona808.o(i.waitAndCheckResp) for waitAndCheckResp
    gsm_fona808.o(i.GSMMinFunc) refers to systick.o(i.SysTick_delay_ms) for SysTick_delay_ms
    gsm_fona808.o(i.GSMMinFunc) refers to gsm_fona808.o(i.GSMTimerDisable) for GSMTimerDisable
    gsm_fona808.o(i.GSMMinFunc) refers to gsm_fona808.o(.bss) for stats
    gsm_fona808.o(i.GSMNetworkReg) refers to gsm_fona808.o(i.GSMTimerEnable) for GSMTimerEnable
    gsm_fona808.o(i.GSMNetworkReg) refers to gsm_fona808.o(i.getGSMNetworkReg) for getGSMNetworkReg
    gsm_fona808.o(i.GSMNetworkReg) refers to systick.o(i.SysTick_delay_ms) for SysTick_delay_ms
    gsm_fona808.o(i.GSMNetworkReg) refers to gsm_fona808.o(i.GSMTimerDisable) for GSMTimerDisable
    gsm_fona808.o(i.GSMNetworkReg) refers to gsm_fona808.o(.bss) for stats
    gsm_fona808.o(i.GSMSignalQlty) refers to gsm_fona808.o(i.GSMTimerEnable) for GSMTimerEnable
    gsm_fona808.o(i.GSMSignalQlty) refers to gsm_fona808.o(i.getGSMSignalQlty) for getGSMSignalQlty
    gsm_fona808.o(i.GSMSignalQlty) refers to systick.o(i.SysTick_delay_ms) for SysTick_delay_ms
    gsm_fona808.o(i.GSMSignalQlty) refers to gsm_fona808.o(i.GSMTimerDisable) for GSMTimerDisable
    gsm_fona808.o(i.GSMSignalQlty) refers to gsm_fona808.o(.bss) for stats
    gsm_fona808.o(i.GSMTimerEnable) refers to gsm_fona808.o(.bss) for stats
    gsm_fona808.o(i.Init_GSM) refers to gsm_fona808.o(i.isGSMOn) for isGSMOn
    gsm_fona808.o(i.Init_GSM) refers to uartconfiguration.o(i.responseRead) for responseRead
    gsm_fona808.o(i.Init_GSM) refers to uartstdio.o(i.UARTprintf) for UARTprintf
    gsm_fona808.o(i.Init_GSM) refers to strfunc.o(i.stringLength) for stringLength
    gsm_fona808.o(i.Init_GSM) refers to uartconfiguration.o(i.UARTSend) for UARTSend
    gsm_fona808.o(i.Init_GSM) refers to gsm_fona808.o(i.waitAndCheckResp) for waitAndCheckResp
    gsm_fona808.o(i.Init_GSM) refers to gsm_fona808.o(i.configTimerGSM) for configTimerGSM
    gsm_fona808.o(i.Init_GSM) refers to gsm_fona808.o(i.Init_PortH) for Init_PortH
    gsm_fona808.o(i.Init_GSM) refers to gsm_fona808.o(i.getGSMFunc) for getGSMFunc
    gsm_fona808.o(i.Init_GSM) refers to gsm_fona808.o(i.simCardDetectOneTry) for simCardDetectOneTry
    gsm_fona808.o(i.Init_GSM) refers to gsm_fona808.o(i.getGSMNetworkReg) for getGSMNetworkReg
    gsm_fona808.o(i.Init_GSM) refers to gsm_fona808.o(i.getGSMSignalQlty) for getGSMSignalQlty
    gsm_fona808.o(i.Init_GSM) refers to systick.o(i.SysTick_delay_ms) for SysTick_delay_ms
    gsm_fona808.o(i.Init_GSM) refers to gsm_fona808.o(.data) for counterForInit
    gsm_fona808.o(i.Init_GSM) refers to gsm_fona808.o(.bss) for stats
    gsm_fona808.o(i.Init_PortH) refers to gpio.o(i.GPIOPinTypeGPIOInput) for GPIOPinTypeGPIOInput
    gsm_fona808.o(i.Init_PortH) refers to gpio.o(i.GPIOIntTypeSet) for GPIOIntTypeSet
    gsm_fona808.o(i.Init_PortH) refers to gpio.o(i.GPIOIntEnable) for GPIOIntEnable
    gsm_fona808.o(i.PortHIntHandler) refers to gpio.o(i.GPIOIntClear) for GPIOIntClear
    gsm_fona808.o(i.PortHIntHandler) refers to strfunc.o(i.stringLength) for stringLength
    gsm_fona808.o(i.PortHIntHandler) refers to uartconfiguration.o(i.UARTSend) for UARTSend
    gsm_fona808.o(i.PortHIntHandler) refers to systick.o(i.SysTick_delay_ms) for SysTick_delay_ms
    gsm_fona808.o(i.PortHIntHandler) refers to gsm_fona808.o(.bss) for stats
    gsm_fona808.o(i.PortHIntHandler) refers to gsm_fona808.o(.constdata) for .constdata
    gsm_fona808.o(i.SimCardDetect) refers to gsm_fona808.o(i.GSMTimerEnable) for GSMTimerEnable
    gsm_fona808.o(i.SimCardDetect) refers to gsm_fona808.o(i.simCardDetectOneTry) for simCardDetectOneTry
    gsm_fona808.o(i.SimCardDetect) refers to strfunc.o(i.stringLength) for stringLength
    gsm_fona808.o(i.SimCardDetect) refers to uartconfiguration.o(i.UARTSend) for UARTSend
    gsm_fona808.o(i.SimCardDetect) refers to systick.o(i.SysTick_delay_ms) for SysTick_delay_ms
    gsm_fona808.o(i.SimCardDetect) refers to gsm_fona808.o(i.GSMTimerDisable) for GSMTimerDisable
    gsm_fona808.o(i.SimCardDetect) refers to gsm_fona808.o(.bss) for stats
    gsm_fona808.o(i.TIMER0A_Handler) refers to strfunc.o(i.stringLength) for stringLength
    gsm_fona808.o(i.TIMER0A_Handler) refers to uartconfiguration.o(i.UARTSend) for UARTSend
    gsm_fona808.o(i.TIMER0A_Handler) refers to gsm_fona808.o(.bss) for stats
    gsm_fona808.o(i.URCfound) refers to ustdlib.o(i.ustrstr) for ustrstr
    gsm_fona808.o(i.URCfound) refers to gsm_fona808.o(.data) for URC
    gsm_fona808.o(i.URCfound) refers to uartconfiguration.o(.bss) for UARTResponse
    gsm_fona808.o(i.configTimerGSM) refers to sysctl.o(i.SysCtlClockGet) for SysCtlClockGet
    gsm_fona808.o(i.configTimerGSM) refers to interrupt.o(i.IntEnable) for IntEnable
    gsm_fona808.o(i.getBatstat) refers to memseta.o(.text) for __aeabi_memclr4
    gsm_fona808.o(i.getBatstat) refers to uartconfiguration.o(i.responseRead) for responseRead
    gsm_fona808.o(i.getBatstat) refers to uartstdio.o(i.UARTprintf) for UARTprintf
    gsm_fona808.o(i.getBatstat) refers to strfunc.o(i.stringLength) for stringLength
    gsm_fona808.o(i.getBatstat) refers to uartconfiguration.o(i.UARTSend) for UARTSend
    gsm_fona808.o(i.getBatstat) refers to gsm_fona808.o(i.waitAndCheckResp) for waitAndCheckResp
    gsm_fona808.o(i.getBatstat) refers to systick.o(i.SysTick_delay_ms) for SysTick_delay_ms
    gsm_fona808.o(i.getBatstat) refers to atoi.o(.text) for atoi
    gsm_fona808.o(i.getBatstat) refers to gsm_fona808.o(.bss) for stats
    gsm_fona808.o(i.getGSMFunc) refers to uartconfiguration.o(i.responseRead) for responseRead
    gsm_fona808.o(i.getGSMFunc) refers to uartstdio.o(i.UARTprintf) for UARTprintf
    gsm_fona808.o(i.getGSMFunc) refers to strfunc.o(i.stringLength) for stringLength
    gsm_fona808.o(i.getGSMFunc) refers to uartconfiguration.o(i.UARTSend) for UARTSend
    gsm_fona808.o(i.getGSMFunc) refers to gsm_fona808.o(i.waitAndCheckResp) for waitAndCheckResp
    gsm_fona808.o(i.getGSMFunc) refers to atoi.o(.text) for atoi
    gsm_fona808.o(i.getGSMNetworkReg) refers to uartconfiguration.o(i.responseRead) for responseRead
    gsm_fona808.o(i.getGSMNetworkReg) refers to uartstdio.o(i.UARTprintf) for UARTprintf
    gsm_fona808.o(i.getGSMNetworkReg) refers to strfunc.o(i.stringLength) for stringLength
    gsm_fona808.o(i.getGSMNetworkReg) refers to uartconfiguration.o(i.UARTSend) for UARTSend
    gsm_fona808.o(i.getGSMNetworkReg) refers to gsm_fona808.o(i.waitAndCheckResp) for waitAndCheckResp
    gsm_fona808.o(i.getGSMNetworkReg) refers to atoi.o(.text) for atoi
    gsm_fona808.o(i.getGSMSignalQlty) refers to uartconfiguration.o(i.responseRead) for responseRead
    gsm_fona808.o(i.getGSMSignalQlty) refers to uartstdio.o(i.UARTprintf) for UARTprintf
    gsm_fona808.o(i.getGSMSignalQlty) refers to strfunc.o(i.stringLength) for stringLength
    gsm_fona808.o(i.getGSMSignalQlty) refers to uartconfiguration.o(i.UARTSend) for UARTSend
    gsm_fona808.o(i.getGSMSignalQlty) refers to gsm_fona808.o(i.waitAndCheckResp) for waitAndCheckResp
    gsm_fona808.o(i.getGSMSignalQlty) refers to atoi.o(.text) for atoi
    gsm_fona808.o(i.isGSMOn) refers to uartconfiguration.o(i.responseRead) for responseRead
    gsm_fona808.o(i.isGSMOn) refers to uartstdio.o(i.UARTprintf) for UARTprintf
    gsm_fona808.o(i.isGSMOn) refers to strfunc.o(i.stringLength) for stringLength
    gsm_fona808.o(i.isGSMOn) refers to uartconfiguration.o(i.UARTSend) for UARTSend
    gsm_fona808.o(i.isGSMOn) refers to gsm_fona808.o(i.waitAndCheckResp) for waitAndCheckResp
    gsm_fona808.o(i.sendDataCommands) refers to uartconfiguration.o(i.responseRead) for responseRead
    gsm_fona808.o(i.sendDataCommands) refers to uartstdio.o(i.UARTprintf) for UARTprintf
    gsm_fona808.o(i.sendDataCommands) refers to strfunc.o(i.stringLength) for stringLength
    gsm_fona808.o(i.sendDataCommands) refers to uartconfiguration.o(i.UARTSend) for UARTSend
    gsm_fona808.o(i.sendDataCommands) refers to gsm_fona808.o(i.waitAndCheckResp) for waitAndCheckResp
    gsm_fona808.o(i.sendDataCommands) refers to systick.o(i.SysTick_delay_ms) for SysTick_delay_ms
    gsm_fona808.o(i.sendDataCommands) refers to ustdlib.o(i.ustrcmp) for ustrcmp
    gsm_fona808.o(i.sendDataCommands) refers to ustdlib.o(i.ustrstr) for ustrstr
    gsm_fona808.o(i.sendDataCommands) refers to atoi.o(.text) for atoi
    gsm_fona808.o(i.sendDataCommands) refers to gsm_fona808.o(.bss) for stats
    gsm_fona808.o(i.sendDataCommands) refers to uartconfiguration.o(.bss) for UARTResponse
    gsm_fona808.o(i.sendDataMsg) refers to memcpya.o(.text) for __aeabi_memcpy4
    gsm_fona808.o(i.sendDataMsg) refers to strfunc.o(i.stringAppend) for stringAppend
    gsm_fona808.o(i.sendDataMsg) refers to gsm_fona808.o(i.GSMTimerEnable) for GSMTimerEnable
    gsm_fona808.o(i.sendDataMsg) refers to gsm_fona808.o(i.sendDataCommands) for sendDataCommands
    gsm_fona808.o(i.sendDataMsg) refers to systick.o(i.SysTick_delay_ms) for SysTick_delay_ms
    gsm_fona808.o(i.sendDataMsg) refers to gsm_fona808.o(i.GSMTimerDisable) for GSMTimerDisable
    gsm_fona808.o(i.sendDataMsg) refers to gsm_fona808.o(.constdata) for .constdata
    gsm_fona808.o(i.sendDataMsg) refers to gsm_fona808.o(.bss) for stats
    gsm_fona808.o(i.sendSMS) refers to strfunc.o(i.stringLength) for stringLength
    gsm_fona808.o(i.sendSMS) refers to uartconfiguration.o(i.UARTSend) for UARTSend
    gsm_fona808.o(i.sendSMS) refers to memcpya.o(.text) for __aeabi_memcpy4
    gsm_fona808.o(i.sendSMS) refers to strfunc.o(i.stringAppend) for stringAppend
    gsm_fona808.o(i.sendSMS) refers to gsm_fona808.o(i.GSMTimerEnable) for GSMTimerEnable
    gsm_fona808.o(i.sendSMS) refers to uartconfiguration.o(i.responseRead) for responseRead
    gsm_fona808.o(i.sendSMS) refers to uartstdio.o(i.UARTprintf) for UARTprintf
    gsm_fona808.o(i.sendSMS) refers to gsm_fona808.o(i.waitAndCheckResp) for waitAndCheckResp
    gsm_fona808.o(i.sendSMS) refers to systick.o(i.SysTick_delay_ms) for SysTick_delay_ms
    gsm_fona808.o(i.sendSMS) refers to uart.o(i.UARTCharPut) for UARTCharPut
    gsm_fona808.o(i.sendSMS) refers to gsm_fona808.o(i.GSMTimerDisable) for GSMTimerDisable
    gsm_fona808.o(i.sendSMS) refers to gsm_fona808.o(.bss) for stats
    gsm_fona808.o(i.sendSMS) refers to gsm_fona808.o(.constdata) for .constdata
    gsm_fona808.o(i.simCardDetectOneTry) refers to uartconfiguration.o(i.responseRead) for responseRead
    gsm_fona808.o(i.simCardDetectOneTry) refers to uartstdio.o(i.UARTprintf) for UARTprintf
    gsm_fona808.o(i.simCardDetectOneTry) refers to strfunc.o(i.stringLength) for stringLength
    gsm_fona808.o(i.simCardDetectOneTry) refers to uartconfiguration.o(i.UARTSend) for UARTSend
    gsm_fona808.o(i.simCardDetectOneTry) refers to gsm_fona808.o(i.waitAndCheckResp) for waitAndCheckResp
    gsm_fona808.o(i.waitAndCheckResp) refers to gsm_fona808.o(i.waitForUART1) for waitForUART1
    gsm_fona808.o(i.waitAndCheckResp) refers to ustdlib.o(i.ustrstr) for ustrstr
    gsm_fona808.o(i.waitAndCheckResp) refers to gsm_fona808.o(i.URCfound) for URCfound
    gsm_fona808.o(i.waitAndCheckResp) refers to uartconfiguration.o(i.responseRead) for responseRead
    gsm_fona808.o(i.waitAndCheckResp) refers to uartconfiguration.o(.bss) for UARTResponse
    gsm_fona808.o(i.waitForUART1) refers to systick.o(i.SysTick_delay_ms) for SysTick_delay_ms
    gsm_fona808.o(i.waitForUART1) refers to gsm_fona808.o(.bss) for stats
    gsm_fona808.o(i.waitForUART1) refers to uartconfiguration.o(.data) for UARTIntStat
    gsm_fona808.o(.constdata) refers to gsm_fona808.o(.bss) for stats
    strfunc.o(i.float2str) refers to cdcmple.o(.text) for __aeabi_cdcmple
    strfunc.o(i.float2str) refers to dmul.o(.text) for __aeabi_dmul
    strfunc.o(i.float2str) refers to cdrcmple.o(.text) for __aeabi_cdrcmple
    strfunc.o(i.float2str) refers to ddiv.o(.text) for __aeabi_ddiv
    strfunc.o(i.float2str) refers to strfunc.o(i.truncate) for truncate
    strfunc.o(i.float2str) refers to dfixi.o(.text) for __aeabi_d2iz
    strfunc.o(i.float2str) refers to dflti.o(.text) for __aeabi_i2d
    strfunc.o(i.float2str) refers to dadd.o(.text) for __aeabi_drsub
    strfunc.o(i.num2str) refers to uldiv.o(.text) for __aeabi_uldivmod
    strfunc.o(i.num2str) refers to dflti.o(.text) for __aeabi_i2d
    strfunc.o(i.num2str) refers to pow.o(i.__hardfp_pow) for __hardfp_pow
    strfunc.o(i.num2str) refers to dfltul.o(.text) for __aeabi_ul2d
    strfunc.o(i.num2str) refers to ddiv.o(.text) for __aeabi_ddiv
    strfunc.o(i.num2str) refers to dfixul.o(.text) for __aeabi_d2ulz
    strfunc.o(i.num2str) refers to dmul.o(.text) for __aeabi_dmul
    strfunc.o(i.num2str) refers to dadd.o(.text) for __aeabi_dsub
    strfunc.o(i.truncate) refers to cdrcmple.o(.text) for __aeabi_cdrcmple
    strfunc.o(i.truncate) refers to floor.o(i.__hardfp_floor) for __hardfp_floor
    strfunc.o(i.truncate) refers to ceil.o(i.__hardfp_ceil) for __hardfp_ceil
    uartconfiguration.o(i.UART0IntHandler) refers to ustdlib.o(i.ustrcmp) for ustrcmp
    uartconfiguration.o(i.UART0IntHandler) refers to sd_card.o(i.sdCard) for sdCard
    uartconfiguration.o(i.UART0IntHandler) refers to ustdlib.o(i.ustrstr) for ustrstr
    uartconfiguration.o(i.UART0IntHandler) refers to uartconfiguration.o(i.responseRead) for responseRead
    uartconfiguration.o(i.UART0IntHandler) refers to uartconfiguration.o(.data) for indexUART
    uartconfiguration.o(i.UART0IntHandler) refers to uartconfiguration.o(.bss) for UARTResponse
    uartconfiguration.o(i.UART1IntHandler) refers to uart.o(i.UARTIntClear) for UARTIntClear
    uartconfiguration.o(i.UART1IntHandler) refers to uart.o(i.UARTCharPut) for UARTCharPut
    uartconfiguration.o(i.UART1IntHandler) refers to uart.o(i.UARTCharsAvail) for UARTCharsAvail
    uartconfiguration.o(i.UART1IntHandler) refers to uartconfiguration.o(.data) for indexUART
    uartconfiguration.o(i.UART1IntHandler) refers to uartconfiguration.o(.bss) for UARTResponse
    uartconfiguration.o(i.UARTSend) refers to sd_card.o(i.writeToFile) for writeToFile
    uartconfiguration.o(i.configUART) refers to uartstdio.o(i.UARTStdioConfig) for UARTStdioConfig
    uartconfiguration.o(i.configUART) refers to uart.o(i.UARTFIFOEnable) for UARTFIFOEnable
    uartconfiguration.o(i.configUART) refers to uart.o(i.UARTFIFOLevelSet) for UARTFIFOLevelSet
    uartconfiguration.o(i.configUART) refers to uartconfiguration.o(.data) for indexUART
    uartconfiguration.o(i.responseRead) refers to sd_card.o(i.writeToFile) for writeToFile
    uartconfiguration.o(i.responseRead) refers to uartconfiguration.o(.bss) for UARTResponse
    uartconfiguration.o(i.responseRead) refers to uartconfiguration.o(.data) for indexUART
    systick.o(i.SysTick_delay_ms) refers to systick.o(i.SysTick_Wait) for SysTick_Wait
    systick.o(i.SysTick_delay_us) refers to systick.o(i.SysTick_Wait) for SysTick_Wait
    lcd.o(i.lcd_cls) refers to lcd.o(i.lcd_command) for lcd_command
    lcd.o(i.lcd_cls) refers to systick.o(i.SysTick_delay_ms) for SysTick_delay_ms
    lcd.o(i.lcd_command) refers to systick.o(i.SysTick_delay_ms) for SysTick_delay_ms
    lcd.o(i.lcd_goto) refers to lcd.o(i.lcd_command) for lcd_command
    lcd.o(i.lcd_init) refers to systick.o(i.SysTick_delay_ms) for SysTick_delay_ms
    lcd.o(i.lcd_init) refers to lcd.o(i.lcd_command) for lcd_command
    lcd.o(i.lcd_init) refers to lcd.o(i.lcd_cls) for lcd_cls
    lcd.o(i.lcd_putch) refers to systick.o(i.SysTick_delay_ms) for SysTick_delay_ms
    lcd.o(i.lcd_puts) refers to lcd.o(i.lcd_putch) for lcd_putch
    scheduler.o(i.SchedulerElapsedTicksGet) refers to scheduler.o(i.SchedulerElapsedTicksCalc) for SchedulerElapsedTicksCalc
    scheduler.o(i.SchedulerElapsedTicksGet) refers to scheduler.o(.data) for g_ui32SchedulerTickCount
    scheduler.o(i.SchedulerInit) refers to sysctl.o(i.SysCtlClockGet) for SysCtlClockGet
    scheduler.o(i.SchedulerInit) refers to systick.o(i.SysTickPeriodSet) for SysTickPeriodSet
    scheduler.o(i.SchedulerInit) refers to systick.o(i.SysTickEnable) for SysTickEnable
    scheduler.o(i.SchedulerInit) refers to systick.o(i.SysTickIntEnable) for SysTickIntEnable
    scheduler.o(i.SchedulerRun) refers to scheduler.o(i.SchedulerElapsedTicksGet) for SchedulerElapsedTicksGet
    scheduler.o(i.SchedulerRun) refers to main.o(.data) for g_psSchedulerTable
    scheduler.o(i.SchedulerRun) refers to scheduler.o(.data) for g_ui32SchedulerTickCount
    scheduler.o(i.SchedulerSysTickIntHandler) refers to scheduler.o(i.SchedulerRun) for SchedulerRun
    scheduler.o(i.SchedulerSysTickIntHandler) refers to scheduler.o(.data) for g_ui32SchedulerTickCount
    scheduler.o(i.SchedulerTaskDisable) refers to main.o(.data) for g_ui32SchedulerNumTasks
    scheduler.o(i.SchedulerTaskEnable) refers to main.o(.data) for g_ui32SchedulerNumTasks
    scheduler.o(i.SchedulerTaskEnable) refers to scheduler.o(.data) for g_ui32SchedulerTickCount
    scheduler.o(i.SchedulerTickCountGet) refers to scheduler.o(.data) for g_ui32SchedulerTickCount
    ustdlib.o(i.ulocaltime) refers to ustdlib.o(.constdata) for g_psDaysToMonth
    ustdlib.o(i.umktime) refers to ustdlib.o(i.ulocaltime) for ulocaltime
    ustdlib.o(i.umktime) refers to ustdlib.o(i.ucmptime) for ucmptime
    ustdlib.o(i.urand) refers to ustdlib.o(.data) for g_iRandomSeed
    ustdlib.o(i.usnprintf) refers to ustdlib.o(i.uvsnprintf) for uvsnprintf
    ustdlib.o(i.usprintf) refers to ustdlib.o(i.uvsnprintf) for uvsnprintf
    ustdlib.o(i.usrand) refers to ustdlib.o(.data) for g_iRandomSeed
    ustdlib.o(i.ustrcasecmp) refers to ustdlib.o(i.ustrncasecmp) for ustrncasecmp
    ustdlib.o(i.ustrcmp) refers to ustdlib.o(i.ustrncmp) for ustrncmp
    ustdlib.o(i.ustrstr) refers to ustdlib.o(i.ustrlen) for ustrlen
    ustdlib.o(i.ustrstr) refers to ustdlib.o(i.ustrncmp) for ustrncmp
    ustdlib.o(i.ustrtof) refers to ustdlib.o(.constdata) for g_pfExponents
    ustdlib.o(i.uvsnprintf) refers to ustdlib.o(i.ustrncpy) for ustrncpy
    ustdlib.o(i.uvsnprintf) refers to ustdlib.o(.constdata) for g_pcHex
    ustdlib.o(.constdata) refers to ustdlib.o(.conststring) for .conststring
    gps_fona.o(i.GPSFix) refers to gsm_fona808.o(i.GSMTimerEnable) for GSMTimerEnable
    gps_fona.o(i.GPSFix) refers to gps_fona.o(i.getGPSFix) for getGPSFix
    gps_fona.o(i.GPSFix) refers to gps_fona.o(i.GPSPower) for GPSPower
    gps_fona.o(i.GPSFix) refers to strfunc.o(i.stringLength) for stringLength
    gps_fona.o(i.GPSFix) refers to uartconfiguration.o(i.UARTSend) for UARTSend
    gps_fona.o(i.GPSFix) refers to systick.o(i.SysTick_delay_ms) for SysTick_delay_ms
    gps_fona.o(i.GPSFix) refers to gsm_fona808.o(.constdata) for GSMStats
    gps_fona.o(i.GPSFix) refers to gps_fona.o(.data) for gstats
    gps_fona.o(i.GPSGetData) refers to memseta.o(.text) for __aeabi_memclr4
    gps_fona.o(i.GPSGetData) refers to gps_fona.o(i.GPSSendInf) for GPSSendInf
    gps_fona.o(i.GPSGetData) refers to gps_fona.o(i.fuseDataGPS) for fuseDataGPS
    gps_fona.o(i.GPSGetData) refers to gps_fona.o(i.parseDataGPS) for parseDataGPS
    gps_fona.o(i.GPSGetData) refers to uartconfiguration.o(i.responseRead) for responseRead
    gps_fona.o(i.GPSGetData) refers to gps_fona.o(.data) for gstats
    gps_fona.o(i.GPSParseLat) refers to strfunc.o(i.string2float) for string2float
    gps_fona.o(i.GPSParseLat) refers to f2d.o(.text) for __aeabi_f2d
    gps_fona.o(i.GPSParseLat) refers to strfunc.o(i.truncate) for truncate
    gps_fona.o(i.GPSParseLat) refers to d2f.o(.text) for __aeabi_d2f
    gps_fona.o(i.GPSParseLat) refers to strfunc.o(i.float2str) for float2str
    gps_fona.o(i.GPSParseLat) refers to gps_fona.o(.bss) for data
    gps_fona.o(i.GPSParseLong) refers to strfunc.o(i.string2float) for string2float
    gps_fona.o(i.GPSParseLong) refers to f2d.o(.text) for __aeabi_f2d
    gps_fona.o(i.GPSParseLong) refers to strfunc.o(i.truncate) for truncate
    gps_fona.o(i.GPSParseLong) refers to d2f.o(.text) for __aeabi_d2f
    gps_fona.o(i.GPSParseLong) refers to strfunc.o(i.float2str) for float2str
    gps_fona.o(i.GPSParseLong) refers to gps_fona.o(.bss) for data
    gps_fona.o(i.GPSParseSpeed) refers to ustdlib.o(i.ustrtof) for ustrtof
    gps_fona.o(i.GPSParseSpeed) refers to f2d.o(.text) for __aeabi_f2d
    gps_fona.o(i.GPSParseSpeed) refers to printfa.o(i.__0sprintf) for __2sprintf
    gps_fona.o(i.GPSParseSpeed) refers to gps_fona.o(.bss) for data
    gps_fona.o(i.GPSPower) refers to gsm_fona808.o(i.GSMTimerEnable) for GSMTimerEnable
    gps_fona.o(i.GPSPower) refers to gps_fona.o(i.GPSPowerOneTry) for GPSPowerOneTry
    gps_fona.o(i.GPSPower) refers to systick.o(i.SysTick_delay_ms) for SysTick_delay_ms
    gps_fona.o(i.GPSPower) refers to strfunc.o(i.stringLength) for stringLength
    gps_fona.o(i.GPSPower) refers to uartconfiguration.o(i.UARTSend) for UARTSend
    gps_fona.o(i.GPSPower) refers to gsm_fona808.o(.constdata) for GSMStats
    gps_fona.o(i.GPSPower) refers to gps_fona.o(.data) for gstats
    gps_fona.o(i.GPSPowerOneTry) refers to uartconfiguration.o(i.responseRead) for responseRead
    gps_fona.o(i.GPSPowerOneTry) refers to uartstdio.o(i.UARTprintf) for UARTprintf
    gps_fona.o(i.GPSPowerOneTry) refers to strfunc.o(i.stringLength) for stringLength
    gps_fona.o(i.GPSPowerOneTry) refers to uartconfiguration.o(i.UARTSend) for UARTSend
    gps_fona.o(i.GPSPowerOneTry) refers to gsm_fona808.o(i.waitAndCheckResp) for waitAndCheckResp
    gps_fona.o(i.GPSPowerOneTry) refers to ustdlib.o(i.ustrstr) for ustrstr
    gps_fona.o(i.GPSPowerOneTry) refers to uartconfiguration.o(.bss) for UARTResponse
    gps_fona.o(i.GPSSendInf) refers to gsm_fona808.o(i.GSMTimerEnable) for GSMTimerEnable
    gps_fona.o(i.GPSSendInf) refers to uartconfiguration.o(i.responseRead) for responseRead
    gps_fona.o(i.GPSSendInf) refers to uartstdio.o(i.UARTprintf) for UARTprintf
    gps_fona.o(i.GPSSendInf) refers to strfunc.o(i.stringLength) for stringLength
    gps_fona.o(i.GPSSendInf) refers to uartconfiguration.o(i.UARTSend) for UARTSend
    gps_fona.o(i.GPSSendInf) refers to gsm_fona808.o(i.waitAndCheckResp) for waitAndCheckResp
    gps_fona.o(i.GPSSendInf) refers to systick.o(i.SysTick_delay_ms) for SysTick_delay_ms
    gps_fona.o(i.GPSSendInf) refers to gsm_fona808.o(i.GSMTimerDisable) for GSMTimerDisable
    gps_fona.o(i.GPSSendInf) refers to gps_fona.o(.data) for gstats
    gps_fona.o(i.GPSSendInf) refers to gsm_fona808.o(.constdata) for GSMStats
    gps_fona.o(i.getGPSFix) refers to uartconfiguration.o(i.responseRead) for responseRead
    gps_fona.o(i.getGPSFix) refers to uartstdio.o(i.UARTprintf) for UARTprintf
    gps_fona.o(i.getGPSFix) refers to strfunc.o(i.stringLength) for stringLength
    gps_fona.o(i.getGPSFix) refers to uartconfiguration.o(i.UARTSend) for UARTSend
    gps_fona.o(i.getGPSFix) refers to gsm_fona808.o(i.waitAndCheckResp) for waitAndCheckResp
    gps_fona.o(i.getGPSFix) refers to ustdlib.o(i.ustrstr) for ustrstr
    gps_fona.o(i.getGPSFix) refers to uartconfiguration.o(.bss) for UARTResponse
    gps_fona.o(i.parseDataGPS) refers to gps_fona.o(i.GPSParseLong) for GPSParseLong
    gps_fona.o(i.parseDataGPS) refers to gps_fona.o(i.GPSParseLat) for GPSParseLat
    gps_fona.o(i.parseDataGPS) refers to strcpy.o(.text) for strcpy
    gps_fona.o(i.parseDataGPS) refers to gps_fona.o(i.GPSParseSpeed) for GPSParseSpeed
    gps_fona.o(i.parseDataGPS) refers to gps_fona.o(.bss) for data
    gps_fona.o(.constdata) refers to gps_fona.o(.bss) for data
    gps_fona.o(.constdata) refers to gps_fona.o(.data) for gstats
    mmc-dk-tm4c123g.o(i.chk_power) refers to mmc-dk-tm4c123g.o(.data) for PowerFlag
    mmc-dk-tm4c123g.o(i.disk_initialize) refers to mmc-dk-tm4c123g.o(i.power_on) for power_on
    mmc-dk-tm4c123g.o(i.disk_initialize) refers to mmc-dk-tm4c123g.o(i.send_initial_clock_train) for send_initial_clock_train
    mmc-dk-tm4c123g.o(i.disk_initialize) refers to mmc-dk-tm4c123g.o(i.SELECT) for SELECT
    mmc-dk-tm4c123g.o(i.disk_initialize) refers to mmc-dk-tm4c123g.o(i.send_cmd) for send_cmd
    mmc-dk-tm4c123g.o(i.disk_initialize) refers to mmc-dk-tm4c123g.o(i.rcvr_spi) for rcvr_spi
    mmc-dk-tm4c123g.o(i.disk_initialize) refers to mmc-dk-tm4c123g.o(i.DESELECT) for DESELECT
    mmc-dk-tm4c123g.o(i.disk_initialize) refers to mmc-dk-tm4c123g.o(i.set_max_speed) for set_max_speed
    mmc-dk-tm4c123g.o(i.disk_initialize) refers to mmc-dk-tm4c123g.o(i.power_off) for power_off
    mmc-dk-tm4c123g.o(i.disk_initialize) refers to mmc-dk-tm4c123g.o(.data) for Stat
    mmc-dk-tm4c123g.o(i.disk_ioctl) refers to mmc-dk-tm4c123g.o(i.chk_power) for chk_power
    mmc-dk-tm4c123g.o(i.disk_ioctl) refers to mmc-dk-tm4c123g.o(i.power_off) for power_off
    mmc-dk-tm4c123g.o(i.disk_ioctl) refers to mmc-dk-tm4c123g.o(i.power_on) for power_on
    mmc-dk-tm4c123g.o(i.disk_ioctl) refers to mmc-dk-tm4c123g.o(i.SELECT) for SELECT
    mmc-dk-tm4c123g.o(i.disk_ioctl) refers to mmc-dk-tm4c123g.o(i.send_cmd) for send_cmd
    mmc-dk-tm4c123g.o(i.disk_ioctl) refers to mmc-dk-tm4c123g.o(i.rcvr_datablock) for rcvr_datablock
    mmc-dk-tm4c123g.o(i.disk_ioctl) refers to mmc-dk-tm4c123g.o(i.wait_ready) for wait_ready
    mmc-dk-tm4c123g.o(i.disk_ioctl) refers to mmc-dk-tm4c123g.o(i.rcvr_spi) for rcvr_spi
    mmc-dk-tm4c123g.o(i.disk_ioctl) refers to mmc-dk-tm4c123g.o(i.DESELECT) for DESELECT
    mmc-dk-tm4c123g.o(i.disk_ioctl) refers to mmc-dk-tm4c123g.o(.data) for Stat
    mmc-dk-tm4c123g.o(i.disk_read) refers to mmc-dk-tm4c123g.o(i.SELECT) for SELECT
    mmc-dk-tm4c123g.o(i.disk_read) refers to mmc-dk-tm4c123g.o(i.send_cmd) for send_cmd
    mmc-dk-tm4c123g.o(i.disk_read) refers to mmc-dk-tm4c123g.o(i.rcvr_datablock) for rcvr_datablock
    mmc-dk-tm4c123g.o(i.disk_read) refers to mmc-dk-tm4c123g.o(i.send_cmd12) for send_cmd12
    mmc-dk-tm4c123g.o(i.disk_read) refers to mmc-dk-tm4c123g.o(i.DESELECT) for DESELECT
    mmc-dk-tm4c123g.o(i.disk_read) refers to mmc-dk-tm4c123g.o(i.rcvr_spi) for rcvr_spi
    mmc-dk-tm4c123g.o(i.disk_read) refers to mmc-dk-tm4c123g.o(.data) for Stat
    mmc-dk-tm4c123g.o(i.disk_status) refers to mmc-dk-tm4c123g.o(.data) for Stat
    mmc-dk-tm4c123g.o(i.disk_timerproc) refers to mmc-dk-tm4c123g.o(.data) for Timer1
    mmc-dk-tm4c123g.o(i.disk_write) refers to mmc-dk-tm4c123g.o(i.SELECT) for SELECT
    mmc-dk-tm4c123g.o(i.disk_write) refers to mmc-dk-tm4c123g.o(i.send_cmd) for send_cmd
    mmc-dk-tm4c123g.o(i.disk_write) refers to mmc-dk-tm4c123g.o(i.xmit_datablock) for xmit_datablock
    mmc-dk-tm4c123g.o(i.disk_write) refers to mmc-dk-tm4c123g.o(i.DESELECT) for DESELECT
    mmc-dk-tm4c123g.o(i.disk_write) refers to mmc-dk-tm4c123g.o(i.rcvr_spi) for rcvr_spi
    mmc-dk-tm4c123g.o(i.disk_write) refers to mmc-dk-tm4c123g.o(.data) for Stat
    mmc-dk-tm4c123g.o(i.power_off) refers to mmc-dk-tm4c123g.o(.data) for PowerFlag
    mmc-dk-tm4c123g.o(i.power_on) refers to mmc-dk-tm4c123g.o(i.send_initial_clock_train) for send_initial_clock_train
    mmc-dk-tm4c123g.o(i.power_on) refers to mmc-dk-tm4c123g.o(.data) for PowerFlag
    mmc-dk-tm4c123g.o(i.rcvr_datablock) refers to mmc-dk-tm4c123g.o(i.rcvr_spi) for rcvr_spi
    mmc-dk-tm4c123g.o(i.rcvr_datablock) refers to mmc-dk-tm4c123g.o(i.rcvr_spi_m) for rcvr_spi_m
    mmc-dk-tm4c123g.o(i.rcvr_datablock) refers to mmc-dk-tm4c123g.o(.data) for Timer1
    mmc-dk-tm4c123g.o(i.rcvr_spi_m) refers to mmc-dk-tm4c123g.o(i.rcvr_spi) for rcvr_spi
    mmc-dk-tm4c123g.o(i.send_cmd) refers to mmc-dk-tm4c123g.o(i.wait_ready) for wait_ready
    mmc-dk-tm4c123g.o(i.send_cmd) refers to mmc-dk-tm4c123g.o(i.xmit_spi) for xmit_spi
    mmc-dk-tm4c123g.o(i.send_cmd) refers to mmc-dk-tm4c123g.o(i.rcvr_spi) for rcvr_spi
    mmc-dk-tm4c123g.o(i.send_cmd12) refers to mmc-dk-tm4c123g.o(i.xmit_spi) for xmit_spi
    mmc-dk-tm4c123g.o(i.send_cmd12) refers to mmc-dk-tm4c123g.o(i.rcvr_spi) for rcvr_spi
    mmc-dk-tm4c123g.o(i.send_initial_clock_train) refers to mmc-dk-tm4c123g.o(i.DESELECT) for DESELECT
    mmc-dk-tm4c123g.o(i.wait_ready) refers to mmc-dk-tm4c123g.o(i.rcvr_spi) for rcvr_spi
    mmc-dk-tm4c123g.o(i.wait_ready) refers to mmc-dk-tm4c123g.o(.data) for Timer2
    mmc-dk-tm4c123g.o(i.xmit_datablock) refers to mmc-dk-tm4c123g.o(i.wait_ready) for wait_ready
    mmc-dk-tm4c123g.o(i.xmit_datablock) refers to mmc-dk-tm4c123g.o(i.xmit_spi) for xmit_spi
    mmc-dk-tm4c123g.o(i.xmit_datablock) refers to mmc-dk-tm4c123g.o(i.rcvr_spi) for rcvr_spi
    ff.o(i.check_fs) refers to mmc-dk-tm4c123g.o(i.disk_read) for disk_read
    ff.o(i.chk_mounted) refers to mmc-dk-tm4c123g.o(i.disk_status) for disk_status
    ff.o(i.chk_mounted) refers to mmc-dk-tm4c123g.o(i.disk_initialize) for disk_initialize
    ff.o(i.chk_mounted) refers to ff.o(i.check_fs) for check_fs
    ff.o(i.chk_mounted) refers to mmc-dk-tm4c123g.o(i.disk_read) for disk_read
    ff.o(i.chk_mounted) refers to ff.o(.data) for FatFs
    ff.o(i.cmp_lfn) refers to cc932.o(i.ff_wtoupper) for ff_wtoupper
    ff.o(i.cmp_lfn) refers to ff.o(.constdata) for LfnOfs
    ff.o(i.create_chain) refers to ff.o(i.get_fat) for get_fat
    ff.o(i.create_chain) refers to ff.o(i.put_fat) for put_fat
    ff.o(i.create_name) refers to cc932.o(i.ff_convert) for ff_convert
    ff.o(i.create_name) refers to ff.o(i.chk_chr) for chk_chr
    ff.o(i.create_name) refers to ff.o(i.mem_set) for mem_set
    ff.o(i.create_name) refers to cc932.o(i.ff_wtoupper) for ff_wtoupper
    ff.o(i.dir_alloc) refers to ff.o(i.dir_sdi) for dir_sdi
    ff.o(i.dir_alloc) refers to ff.o(i.move_window) for move_window
    ff.o(i.dir_alloc) refers to ff.o(i.dir_next) for dir_next
    ff.o(i.dir_find) refers to ff.o(i.dir_sdi) for dir_sdi
    ff.o(i.dir_find) refers to ff.o(i.move_window) for move_window
    ff.o(i.dir_find) refers to ff.o(i.cmp_lfn) for cmp_lfn
    ff.o(i.dir_find) refers to ff.o(i.sum_sfn) for sum_sfn
    ff.o(i.dir_find) refers to ff.o(i.mem_cmp) for mem_cmp
    ff.o(i.dir_find) refers to ff.o(i.dir_next) for dir_next
    ff.o(i.dir_next) refers to ff.o(i.get_fat) for get_fat
    ff.o(i.dir_next) refers to ff.o(i.create_chain) for create_chain
    ff.o(i.dir_next) refers to ff.o(i.sync_window) for sync_window
    ff.o(i.dir_next) refers to ff.o(i.mem_set) for mem_set
    ff.o(i.dir_next) refers to ff.o(i.clust2sect) for clust2sect
    ff.o(i.dir_read) refers to ff.o(i.move_window) for move_window
    ff.o(i.dir_read) refers to ff.o(i.pick_lfn) for pick_lfn
    ff.o(i.dir_read) refers to ff.o(i.sum_sfn) for sum_sfn
    ff.o(i.dir_read) refers to ff.o(i.dir_next) for dir_next
    ff.o(i.dir_register) refers to ff.o(i.mem_cpy) for mem_cpy
    ff.o(i.dir_register) refers to ff.o(i.gen_numname) for gen_numname
    ff.o(i.dir_register) refers to ff.o(i.dir_find) for dir_find
    ff.o(i.dir_register) refers to ff.o(i.dir_alloc) for dir_alloc
    ff.o(i.dir_register) refers to ff.o(i.dir_sdi) for dir_sdi
    ff.o(i.dir_register) refers to ff.o(i.sum_sfn) for sum_sfn
    ff.o(i.dir_register) refers to ff.o(i.move_window) for move_window
    ff.o(i.dir_register) refers to ff.o(i.fit_lfn) for fit_lfn
    ff.o(i.dir_register) refers to ff.o(i.dir_next) for dir_next
    ff.o(i.dir_register) refers to ff.o(i.mem_set) for mem_set
    ff.o(i.dir_remove) refers to ff.o(i.dir_sdi) for dir_sdi
    ff.o(i.dir_remove) refers to ff.o(i.move_window) for move_window
    ff.o(i.dir_remove) refers to ff.o(i.dir_next) for dir_next
    ff.o(i.dir_sdi) refers to ff.o(i.get_fat) for get_fat
    ff.o(i.dir_sdi) refers to ff.o(i.clust2sect) for clust2sect
    ff.o(i.f_chmod) refers to ff.o(i.chk_mounted) for chk_mounted
    ff.o(i.f_chmod) refers to ff.o(i.follow_path) for follow_path
    ff.o(i.f_chmod) refers to ff.o(i.sync_fs) for sync_fs
    ff.o(i.f_chmod) refers to ff.o(.bss) for LfnBuf
    ff.o(i.f_close) refers to ff.o(i.f_sync) for f_sync
    ff.o(i.f_getfree) refers to ff.o(i.chk_mounted) for chk_mounted
    ff.o(i.f_getfree) refers to ff.o(i.get_fat) for get_fat
    ff.o(i.f_getfree) refers to ff.o(i.move_window) for move_window
    ff.o(i.f_lseek) refers to ff.o(i.validate) for validate
    ff.o(i.f_lseek) refers to ff.o(i.create_chain) for create_chain
    ff.o(i.f_lseek) refers to ff.o(i.get_fat) for get_fat
    ff.o(i.f_lseek) refers to ff.o(i.clust2sect) for clust2sect
    ff.o(i.f_lseek) refers to mmc-dk-tm4c123g.o(i.disk_write) for disk_write
    ff.o(i.f_lseek) refers to mmc-dk-tm4c123g.o(i.disk_read) for disk_read
    ff.o(i.f_mkdir) refers to mmc-dk-tm4c123g.o(i.get_fattime) for get_fattime
    ff.o(i.f_mkdir) refers to ff.o(i.chk_mounted) for chk_mounted
    ff.o(i.f_mkdir) refers to ff.o(i.follow_path) for follow_path
    ff.o(i.f_mkdir) refers to ff.o(i.create_chain) for create_chain
    ff.o(i.f_mkdir) refers to ff.o(i.sync_window) for sync_window
    ff.o(i.f_mkdir) refers to ff.o(i.clust2sect) for clust2sect
    ff.o(i.f_mkdir) refers to ff.o(i.mem_set) for mem_set
    ff.o(i.f_mkdir) refers to ff.o(i.st_clust) for st_clust
    ff.o(i.f_mkdir) refers to ff.o(i.mem_cpy) for mem_cpy
    ff.o(i.f_mkdir) refers to ff.o(i.dir_register) for dir_register
    ff.o(i.f_mkdir) refers to ff.o(i.remove_chain) for remove_chain
    ff.o(i.f_mkdir) refers to ff.o(i.sync_fs) for sync_fs
    ff.o(i.f_mkdir) refers to ff.o(.bss) for LfnBuf
    ff.o(i.f_mount) refers to ff.o(.data) for FatFs
    ff.o(i.f_open) refers to ff.o(i.chk_mounted) for chk_mounted
    ff.o(i.f_open) refers to ff.o(i.follow_path) for follow_path
    ff.o(i.f_open) refers to ff.o(i.dir_register) for dir_register
    ff.o(i.f_open) refers to mmc-dk-tm4c123g.o(i.get_fattime) for get_fattime
    ff.o(i.f_open) refers to ff.o(i.ld_clust) for ld_clust
    ff.o(i.f_open) refers to ff.o(i.st_clust) for st_clust
    ff.o(i.f_open) refers to ff.o(i.remove_chain) for remove_chain
    ff.o(i.f_open) refers to ff.o(i.move_window) for move_window
    ff.o(i.f_open) refers to ff.o(.bss) for LfnBuf
    ff.o(i.f_opendir) refers to ff.o(i.chk_mounted) for chk_mounted
    ff.o(i.f_opendir) refers to ff.o(i.follow_path) for follow_path
    ff.o(i.f_opendir) refers to ff.o(i.ld_clust) for ld_clust
    ff.o(i.f_opendir) refers to ff.o(i.dir_sdi) for dir_sdi
    ff.o(i.f_opendir) refers to ff.o(.bss) for LfnBuf
    ff.o(i.f_read) refers to ff.o(i.validate) for validate
    ff.o(i.f_read) refers to ff.o(i.get_fat) for get_fat
    ff.o(i.f_read) refers to ff.o(i.clust2sect) for clust2sect
    ff.o(i.f_read) refers to mmc-dk-tm4c123g.o(i.disk_read) for disk_read
    ff.o(i.f_read) refers to ff.o(i.mem_cpy) for mem_cpy
    ff.o(i.f_read) refers to mmc-dk-tm4c123g.o(i.disk_write) for disk_write
    ff.o(i.f_readdir) refers to ff.o(i.validate) for validate
    ff.o(i.f_readdir) refers to ff.o(i.dir_sdi) for dir_sdi
    ff.o(i.f_readdir) refers to ff.o(i.dir_read) for dir_read
    ff.o(i.f_readdir) refers to ff.o(i.get_fileinfo) for get_fileinfo
    ff.o(i.f_readdir) refers to ff.o(i.dir_next) for dir_next
    ff.o(i.f_readdir) refers to ff.o(.bss) for LfnBuf
    ff.o(i.f_rename) refers to ff.o(i.chk_mounted) for chk_mounted
    ff.o(i.f_rename) refers to ff.o(i.follow_path) for follow_path
    ff.o(i.f_rename) refers to ff.o(i.mem_cpy) for mem_cpy
    ff.o(i.f_rename) refers to ff.o(i.dir_register) for dir_register
    ff.o(i.f_rename) refers to ff.o(i.ld_clust) for ld_clust
    ff.o(i.f_rename) refers to ff.o(i.clust2sect) for clust2sect
    ff.o(i.f_rename) refers to ff.o(i.move_window) for move_window
    ff.o(i.f_rename) refers to ff.o(i.st_clust) for st_clust
    ff.o(i.f_rename) refers to ff.o(i.dir_remove) for dir_remove
    ff.o(i.f_rename) refers to ff.o(i.sync_fs) for sync_fs
    ff.o(i.f_rename) refers to ff.o(.bss) for LfnBuf
    ff.o(i.f_stat) refers to ff.o(i.chk_mounted) for chk_mounted
    ff.o(i.f_stat) refers to ff.o(i.follow_path) for follow_path
    ff.o(i.f_stat) refers to ff.o(i.get_fileinfo) for get_fileinfo
    ff.o(i.f_stat) refers to ff.o(.bss) for LfnBuf
    ff.o(i.f_sync) refers to ff.o(i.validate) for validate
    ff.o(i.f_sync) refers to mmc-dk-tm4c123g.o(i.disk_write) for disk_write
    ff.o(i.f_sync) refers to ff.o(i.move_window) for move_window
    ff.o(i.f_sync) refers to ff.o(i.st_clust) for st_clust
    ff.o(i.f_sync) refers to mmc-dk-tm4c123g.o(i.get_fattime) for get_fattime
    ff.o(i.f_sync) refers to ff.o(i.sync_fs) for sync_fs
    ff.o(i.f_truncate) refers to ff.o(i.validate) for validate
    ff.o(i.f_truncate) refers to ff.o(i.remove_chain) for remove_chain
    ff.o(i.f_truncate) refers to ff.o(i.get_fat) for get_fat
    ff.o(i.f_truncate) refers to ff.o(i.put_fat) for put_fat
    ff.o(i.f_unlink) refers to ff.o(i.chk_mounted) for chk_mounted
    ff.o(i.f_unlink) refers to ff.o(i.follow_path) for follow_path
    ff.o(i.f_unlink) refers to ff.o(i.ld_clust) for ld_clust
    ff.o(i.f_unlink) refers to ff.o(i.mem_cpy) for mem_cpy
    ff.o(i.f_unlink) refers to ff.o(i.dir_sdi) for dir_sdi
    ff.o(i.f_unlink) refers to ff.o(i.dir_read) for dir_read
    ff.o(i.f_unlink) refers to ff.o(i.dir_remove) for dir_remove
    ff.o(i.f_unlink) refers to ff.o(i.remove_chain) for remove_chain
    ff.o(i.f_unlink) refers to ff.o(i.sync_fs) for sync_fs
    ff.o(i.f_unlink) refers to ff.o(.bss) for LfnBuf
    ff.o(i.f_utime) refers to ff.o(i.chk_mounted) for chk_mounted
    ff.o(i.f_utime) refers to ff.o(i.follow_path) for follow_path
    ff.o(i.f_utime) refers to ff.o(i.sync_fs) for sync_fs
    ff.o(i.f_utime) refers to ff.o(.bss) for LfnBuf
    ff.o(i.f_write) refers to ff.o(i.validate) for validate
    ff.o(i.f_write) refers to ff.o(i.create_chain) for create_chain
    ff.o(i.f_write) refers to mmc-dk-tm4c123g.o(i.disk_write) for disk_write
    ff.o(i.f_write) refers to ff.o(i.clust2sect) for clust2sect
    ff.o(i.f_write) refers to ff.o(i.mem_cpy) for mem_cpy
    ff.o(i.f_write) refers to mmc-dk-tm4c123g.o(i.disk_read) for disk_read
    ff.o(i.fit_lfn) refers to ff.o(.constdata) for LfnOfs
    ff.o(i.follow_path) refers to ff.o(i.dir_sdi) for dir_sdi
    ff.o(i.follow_path) refers to ff.o(i.create_name) for create_name
    ff.o(i.follow_path) refers to ff.o(i.dir_find) for dir_find
    ff.o(i.follow_path) refers to ff.o(i.ld_clust) for ld_clust
    ff.o(i.gen_numname) refers to ff.o(i.mem_cpy) for mem_cpy
    ff.o(i.get_fat) refers to ff.o(i.move_window) for move_window
    ff.o(i.get_fileinfo) refers to cc932.o(i.ff_convert) for ff_convert
    ff.o(i.move_window) refers to ff.o(i.sync_window) for sync_window
    ff.o(i.move_window) refers to mmc-dk-tm4c123g.o(i.disk_read) for disk_read
    ff.o(i.pick_lfn) refers to ff.o(.constdata) for LfnOfs
    ff.o(i.put_fat) refers to ff.o(i.move_window) for move_window
    ff.o(i.remove_chain) refers to ff.o(i.get_fat) for get_fat
    ff.o(i.remove_chain) refers to ff.o(i.put_fat) for put_fat
    ff.o(i.sync_fs) refers to ff.o(i.sync_window) for sync_window
    ff.o(i.sync_fs) refers to ff.o(i.mem_set) for mem_set
    ff.o(i.sync_fs) refers to mmc-dk-tm4c123g.o(i.disk_write) for disk_write
    ff.o(i.sync_fs) refers to mmc-dk-tm4c123g.o(i.disk_ioctl) for disk_ioctl
    ff.o(i.sync_window) refers to mmc-dk-tm4c123g.o(i.disk_write) for disk_write
    ff.o(i.validate) refers to mmc-dk-tm4c123g.o(i.disk_status) for disk_status
    cmdline.o(i.CmdLineProcess) refers to strcmp.o(.text) for strcmp
    cmdline.o(i.CmdLineProcess) refers to cmdline.o(.bss) for g_ppcArgv
    cmdline.o(i.CmdLineProcess) refers to sd_card.o(.data) for g_psCmdTable
    cc932.o(i.ff_convert) refers to cc932.o(.constdata) for uni2sjis
    cc932.o(i.ff_wtoupper) refers to cc932.o(.constdata) for tbl_lower
    uartstdio.o(i.UARTStdioConfig) refers to uartstdio.o(.constdata) for g_ui32UARTPeriph
    uartstdio.o(i.UARTStdioConfig) refers to uartstdio.o(.data) for g_ui32Base
    uartstdio.o(i.UARTgetc) refers to uartstdio.o(.data) for g_ui32Base
    uartstdio.o(i.UARTgets) refers to uartstdio.o(i.UARTwrite) for UARTwrite
    uartstdio.o(i.UARTgets) refers to uartstdio.o(.data) for g_ui32Base
    uartstdio.o(i.UARTprintf) refers to uartstdio.o(i.UARTvprintf) for UARTvprintf
    uartstdio.o(i.UARTvprintf) refers to uartstdio.o(i.UARTwrite) for UARTwrite
    uartstdio.o(i.UARTvprintf) refers to uartstdio.o(.constdata) for g_pcHex
    uartstdio.o(i.UARTwrite) refers to uartstdio.o(.data) for g_ui32Base
    uartstdio.o(.constdata) refers to uartstdio.o(.conststring) for .conststring
    sd_card.o(i.Cmd_cat) refers to strlen.o(.text) for strlen
    sd_card.o(i.Cmd_cat) refers to uartstdio.o(i.UARTprintf) for UARTprintf
    sd_card.o(i.Cmd_cat) refers to strcpy.o(.text) for strcpy
    sd_card.o(i.Cmd_cat) refers to strcmp.o(.text) for strcmp
    sd_card.o(i.Cmd_cat) refers to strcat.o(.text) for strcat
    sd_card.o(i.Cmd_cat) refers to ff.o(i.f_open) for f_open
    sd_card.o(i.Cmd_cat) refers to ff.o(i.f_read) for f_read
    sd_card.o(i.Cmd_cat) refers to sd_card.o(.data) for g_pcCwdBuf
    sd_card.o(i.Cmd_cat) refers to sd_card.o(.bss) for g_pcTmpBuf
    sd_card.o(i.Cmd_cd) refers to strcpy.o(.text) for strcpy
    sd_card.o(i.Cmd_cd) refers to strlen.o(.text) for strlen
    sd_card.o(i.Cmd_cd) refers to uartstdio.o(i.UARTprintf) for UARTprintf
    sd_card.o(i.Cmd_cd) refers to strncpy.o(.text) for strncpy
    sd_card.o(i.Cmd_cd) refers to strcmp.o(.text) for strcmp
    sd_card.o(i.Cmd_cd) refers to strcat.o(.text) for strcat
    sd_card.o(i.Cmd_cd) refers to ff.o(i.f_opendir) for f_opendir
    sd_card.o(i.Cmd_cd) refers to sd_card.o(.data) for g_pcCwdBuf
    sd_card.o(i.Cmd_cd) refers to sd_card.o(.bss) for g_pcTmpBuf
    sd_card.o(i.Cmd_help) refers to uartstdio.o(i.UARTprintf) for UARTprintf
    sd_card.o(i.Cmd_help) refers to sd_card.o(.data) for g_psCmdTable
    sd_card.o(i.Cmd_ls) refers to ff.o(i.f_opendir) for f_opendir
    sd_card.o(i.Cmd_ls) refers to uartstdio.o(i.UARTprintf) for UARTprintf
    sd_card.o(i.Cmd_ls) refers to ff.o(i.f_readdir) for f_readdir
    sd_card.o(i.Cmd_ls) refers to ff.o(i.f_getfree) for f_getfree
    sd_card.o(i.Cmd_ls) refers to sd_card.o(.bss) for g_sFileInfo
    sd_card.o(i.Cmd_ls) refers to sd_card.o(.data) for g_pcCwdBuf
    sd_card.o(i.Cmd_pwd) refers to uartstdio.o(i.UARTprintf) for UARTprintf
    sd_card.o(i.Cmd_pwd) refers to sd_card.o(.data) for g_pcCwdBuf
    sd_card.o(i.Cmd_return) refers to sd_card.o(.data) for returnToMain
    sd_card.o(i.FatFsTickTimer) refers to mmc-dk-tm4c123g.o(i.disk_timerproc) for disk_timerproc
    sd_card.o(i.StringFromFResult) refers to sd_card.o(.data) for g_psFResultStrings
    sd_card.o(i.closeFiles) refers to ff.o(i.f_lseek) for f_lseek
    sd_card.o(i.closeFiles) refers to ustdlib.o(i.usprintf) for usprintf
    sd_card.o(i.closeFiles) refers to ustdlib.o(i.ustrlen) for ustrlen
    sd_card.o(i.closeFiles) refers to ff.o(i.f_write) for f_write
    sd_card.o(i.closeFiles) refers to ff.o(i.f_sync) for f_sync
    sd_card.o(i.closeFiles) refers to ff.o(i.f_close) for f_close
    sd_card.o(i.closeFiles) refers to uartstdio.o(i.UARTprintf) for UARTprintf
    sd_card.o(i.closeFiles) refers to sd_card.o(.data) for logRes
    sd_card.o(i.closeFiles) refers to sd_card.o(.bss) for logFile
    sd_card.o(i.logData) refers to systick.o(i.SysTick_delay_ms) for SysTick_delay_ms
    sd_card.o(i.logData) refers to strcmp.o(.text) for strcmp
    sd_card.o(i.logData) refers to strfunc.o(i.stringLength) for stringLength
    sd_card.o(i.logData) refers to ff.o(i.f_write) for f_write
    sd_card.o(i.logData) refers to ustdlib.o(i.usprintf) for usprintf
    sd_card.o(i.logData) refers to ff.o(i.f_sync) for f_sync
    sd_card.o(i.logData) refers to sd_card.o(.data) for logRes
    sd_card.o(i.logData) refers to sd_card.o(.bss) for logFile
    sd_card.o(i.openFile) refers to ff.o(i.f_open) for f_open
    sd_card.o(i.openFile) refers to ustdlib.o(i.usprintf) for usprintf
    sd_card.o(i.openFile) refers to uartstdio.o(i.UARTprintf) for UARTprintf
    sd_card.o(i.openFile) refers to sd_card.o(.bss) for wrFilepath
    sd_card.o(i.sdCard) refers to uartstdio.o(i.UARTprintf) for UARTprintf
    sd_card.o(i.sdCard) refers to uartstdio.o(i.UARTgets) for UARTgets
    sd_card.o(i.sdCard) refers to cmdline.o(i.CmdLineProcess) for CmdLineProcess
    sd_card.o(i.sdCard) refers to sd_card.o(i.StringFromFResult) for StringFromFResult
    sd_card.o(i.sdCard) refers to sd_card.o(.data) for returnToMain
    sd_card.o(i.sdCard) refers to sd_card.o(.bss) for g_pcCmdBuf
    sd_card.o(i.sdInit) refers to memseta.o(.text) for __aeabi_memclr4
    sd_card.o(i.sdInit) refers to strcpy.o(.text) for strcpy
    sd_card.o(i.sdInit) refers to ff.o(i.f_mount) for f_mount
    sd_card.o(i.sdInit) refers to sd_card.o(i.StringFromFResult) for StringFromFResult
    sd_card.o(i.sdInit) refers to uartstdio.o(i.UARTprintf) for UARTprintf
    sd_card.o(i.sdInit) refers to ff.o(i.f_mkdir) for f_mkdir
    sd_card.o(i.sdInit) refers to strfunc.o(i.stringAppend) for stringAppend
    sd_card.o(i.sdInit) refers to ff.o(i.f_opendir) for f_opendir
    sd_card.o(i.sdInit) refers to sd_card.o(i.openFile) for openFile
    sd_card.o(i.sdInit) refers to ff.o(i.f_open) for f_open
    sd_card.o(i.sdInit) refers to ff.o(i.f_write) for f_write
    sd_card.o(i.sdInit) refers to ff.o(i.f_lseek) for f_lseek
    sd_card.o(i.sdInit) refers to ff.o(i.f_read) for f_read
    sd_card.o(i.sdInit) refers to atoi.o(.text) for atoi
    sd_card.o(i.sdInit) refers to ustdlib.o(i.usprintf) for usprintf
    sd_card.o(i.sdInit) refers to strfunc.o(i.stringLength) for stringLength
    sd_card.o(i.sdInit) refers to ff.o(i.f_sync) for f_sync
    sd_card.o(i.sdInit) refers to sd_card.o(i.logData) for logData
    sd_card.o(i.sdInit) refers to sd_card.o(.data) for sdPeripheralEnable
    sd_card.o(i.sdInit) refers to sd_card.o(.bss) for g_sFatFs
    sd_card.o(i.writeToFile) refers to ustdlib.o(i.ustrlen) for ustrlen
    sd_card.o(i.writeToFile) refers to ff.o(i.f_write) for f_write
    sd_card.o(i.writeToFile) refers to ff.o(i.f_sync) for f_sync
    sd_card.o(i.writeToFile) refers to sd_card.o(.data) for writeRes
    sd_card.o(i.writeToFile) refers to sd_card.o(.bss) for wrFile
    sd_card.o(.data) refers to sd_card.o(.conststring) for .conststring
    sd_card.o(.data) refers to sd_card.o(i.Cmd_help) for Cmd_help
    sd_card.o(.data) refers to sd_card.o(i.Cmd_ls) for Cmd_ls
    sd_card.o(.data) refers to sd_card.o(i.Cmd_cd) for Cmd_cd
    sd_card.o(.data) refers to sd_card.o(i.Cmd_pwd) for Cmd_pwd
    sd_card.o(.data) refers to sd_card.o(i.Cmd_cat) for Cmd_cat
    sd_card.o(.data) refers to sd_card.o(i.Cmd_return) for Cmd_return
    gpio.o(i.GPIOIntRegister) refers to interrupt.o(i.IntRegister) for IntRegister
    gpio.o(i.GPIOIntRegister) refers to interrupt.o(i.IntEnable) for IntEnable
    gpio.o(i.GPIOIntRegister) refers to gpio.o(.constdata) for .constdata
    gpio.o(i.GPIOIntUnregister) refers to interrupt.o(i.IntDisable) for IntDisable
    gpio.o(i.GPIOIntUnregister) refers to interrupt.o(i.IntUnregister) for IntUnregister
    gpio.o(i.GPIOIntUnregister) refers to gpio.o(.constdata) for .constdata
    gpio.o(i.GPIOPinConfigure) refers to gpio.o(.constdata) for .constdata
    gpio.o(i.GPIOPinTypeADC) refers to gpio.o(i.GPIODirModeSet) for GPIODirModeSet
    gpio.o(i.GPIOPinTypeADC) refers to gpio.o(i.GPIOPadConfigSet) for GPIOPadConfigSet
    gpio.o(i.GPIOPinTypeCAN) refers to gpio.o(i.GPIODirModeSet) for GPIODirModeSet
    gpio.o(i.GPIOPinTypeCAN) refers to gpio.o(i.GPIOPadConfigSet) for GPIOPadConfigSet
    gpio.o(i.GPIOPinTypeCIR) refers to gpio.o(i.GPIODirModeSet) for GPIODirModeSet
    gpio.o(i.GPIOPinTypeCIR) refers to gpio.o(i.GPIOPadConfigSet) for GPIOPadConfigSet
    gpio.o(i.GPIOPinTypeComparator) refers to gpio.o(i.GPIODirModeSet) for GPIODirModeSet
    gpio.o(i.GPIOPinTypeComparator) refers to gpio.o(i.GPIOPadConfigSet) for GPIOPadConfigSet
    gpio.o(i.GPIOPinTypeEPI) refers to gpio.o(i.GPIODirModeSet) for GPIODirModeSet
    gpio.o(i.GPIOPinTypeEPI) refers to gpio.o(i.GPIOPadConfigSet) for GPIOPadConfigSet
    gpio.o(i.GPIOPinTypeEthernetLED) refers to gpio.o(i.GPIODirModeSet) for GPIODirModeSet
    gpio.o(i.GPIOPinTypeEthernetLED) refers to gpio.o(i.GPIOPadConfigSet) for GPIOPadConfigSet
    gpio.o(i.GPIOPinTypeEthernetMII) refers to gpio.o(i.GPIODirModeSet) for GPIODirModeSet
    gpio.o(i.GPIOPinTypeEthernetMII) refers to gpio.o(i.GPIOPadConfigSet) for GPIOPadConfigSet
    gpio.o(i.GPIOPinTypeFan) refers to gpio.o(i.GPIODirModeSet) for GPIODirModeSet
    gpio.o(i.GPIOPinTypeFan) refers to gpio.o(i.GPIOPadConfigSet) for GPIOPadConfigSet
    gpio.o(i.GPIOPinTypeGPIOInput) refers to gpio.o(i.GPIODirModeSet) for GPIODirModeSet
    gpio.o(i.GPIOPinTypeGPIOInput) refers to gpio.o(i.GPIOPadConfigSet) for GPIOPadConfigSet
    gpio.o(i.GPIOPinTypeGPIOOutput) refers to gpio.o(i.GPIOPadConfigSet) for GPIOPadConfigSet
    gpio.o(i.GPIOPinTypeGPIOOutput) refers to gpio.o(i.GPIODirModeSet) for GPIODirModeSet
    gpio.o(i.GPIOPinTypeGPIOOutputOD) refers to gpio.o(i.GPIOPadConfigSet) for GPIOPadConfigSet
    gpio.o(i.GPIOPinTypeGPIOOutputOD) refers to gpio.o(i.GPIODirModeSet) for GPIODirModeSet
    gpio.o(i.GPIOPinTypeI2C) refers to gpio.o(i.GPIODirModeSet) for GPIODirModeSet
    gpio.o(i.GPIOPinTypeI2C) refers to gpio.o(i.GPIOPadConfigSet) for GPIOPadConfigSet
    gpio.o(i.GPIOPinTypeI2CSCL) refers to gpio.o(i.GPIODirModeSet) for GPIODirModeSet
    gpio.o(i.GPIOPinTypeI2CSCL) refers to gpio.o(i.GPIOPadConfigSet) for GPIOPadConfigSet
    gpio.o(i.GPIOPinTypeKBColumn) refers to gpio.o(i.GPIODirModeSet) for GPIODirModeSet
    gpio.o(i.GPIOPinTypeKBColumn) refers to gpio.o(i.GPIOPadConfigSet) for GPIOPadConfigSet
    gpio.o(i.GPIOPinTypeKBRow) refers to gpio.o(i.GPIODirModeSet) for GPIODirModeSet
    gpio.o(i.GPIOPinTypeKBRow) refers to gpio.o(i.GPIOPadConfigSet) for GPIOPadConfigSet
    gpio.o(i.GPIOPinTypeLCD) refers to gpio.o(i.GPIODirModeSet) for GPIODirModeSet
    gpio.o(i.GPIOPinTypeLCD) refers to gpio.o(i.GPIOPadConfigSet) for GPIOPadConfigSet
    gpio.o(i.GPIOPinTypeLEDSeq) refers to gpio.o(i.GPIODirModeSet) for GPIODirModeSet
    gpio.o(i.GPIOPinTypeLEDSeq) refers to gpio.o(i.GPIOPadConfigSet) for GPIOPadConfigSet
    gpio.o(i.GPIOPinTypeLPC) refers to gpio.o(i.GPIODirModeSet) for GPIODirModeSet
    gpio.o(i.GPIOPinTypeLPC) refers to gpio.o(i.GPIOPadConfigSet) for GPIOPadConfigSet
    gpio.o(i.GPIOPinTypePECIRx) refers to gpio.o(i.GPIODirModeSet) for GPIODirModeSet
    gpio.o(i.GPIOPinTypePECIRx) refers to gpio.o(i.GPIOPadConfigSet) for GPIOPadConfigSet
    gpio.o(i.GPIOPinTypePECITx) refers to gpio.o(i.GPIODirModeSet) for GPIODirModeSet
    gpio.o(i.GPIOPinTypePECITx) refers to gpio.o(i.GPIOPadConfigSet) for GPIOPadConfigSet
    gpio.o(i.GPIOPinTypePWM) refers to gpio.o(i.GPIODirModeSet) for GPIODirModeSet
    gpio.o(i.GPIOPinTypePWM) refers to gpio.o(i.GPIOPadConfigSet) for GPIOPadConfigSet
    gpio.o(i.GPIOPinTypeQEI) refers to gpio.o(i.GPIODirModeSet) for GPIODirModeSet
    gpio.o(i.GPIOPinTypeQEI) refers to gpio.o(i.GPIOPadConfigSet) for GPIOPadConfigSet
    gpio.o(i.GPIOPinTypeSSI) refers to gpio.o(i.GPIODirModeSet) for GPIODirModeSet
    gpio.o(i.GPIOPinTypeSSI) refers to gpio.o(i.GPIOPadConfigSet) for GPIOPadConfigSet
    gpio.o(i.GPIOPinTypeTimer) refers to gpio.o(i.GPIODirModeSet) for GPIODirModeSet
    gpio.o(i.GPIOPinTypeTimer) refers to gpio.o(i.GPIOPadConfigSet) for GPIOPadConfigSet
    gpio.o(i.GPIOPinTypeUART) refers to gpio.o(i.GPIODirModeSet) for GPIODirModeSet
    gpio.o(i.GPIOPinTypeUART) refers to gpio.o(i.GPIOPadConfigSet) for GPIOPadConfigSet
    gpio.o(i.GPIOPinTypeUSBAnalog) refers to gpio.o(i.GPIODirModeSet) for GPIODirModeSet
    gpio.o(i.GPIOPinTypeUSBAnalog) refers to gpio.o(i.GPIOPadConfigSet) for GPIOPadConfigSet
    gpio.o(i.GPIOPinTypeUSBDigital) refers to gpio.o(i.GPIODirModeSet) for GPIODirModeSet
    gpio.o(i.GPIOPinTypeUSBDigital) refers to gpio.o(i.GPIOPadConfigSet) for GPIOPadConfigSet
    gpio.o(i.GPIOPinTypeWakeHigh) refers to gpio.o(i.GPIODirModeSet) for GPIODirModeSet
    gpio.o(i.GPIOPinTypeWakeHigh) refers to gpio.o(i.GPIOPadConfigSet) for GPIOPadConfigSet
    gpio.o(i.GPIOPinTypeWakeLow) refers to gpio.o(i.GPIODirModeSet) for GPIODirModeSet
    gpio.o(i.GPIOPinTypeWakeLow) refers to gpio.o(i.GPIOPadConfigSet) for GPIOPadConfigSet
    hibernate.o(i.HibernateCalendarMatchSet) refers to hibernate.o(i._HibernateCalendarSet) for _HibernateCalendarSet
    hibernate.o(i.HibernateCalendarSet) refers to hibernate.o(i._HibernateCalendarSet) for _HibernateCalendarSet
    hibernate.o(i.HibernateIntRegister) refers to interrupt.o(i.IntRegister) for IntRegister
    hibernate.o(i.HibernateIntRegister) refers to interrupt.o(i.IntEnable) for IntEnable
    hibernate.o(i.HibernateIntUnregister) refers to interrupt.o(i.IntDisable) for IntDisable
    hibernate.o(i.HibernateIntUnregister) refers to interrupt.o(i.IntUnregister) for IntUnregister
    interrupt.o(i.IntDisable) refers to interrupt.o(.constdata) for .constdata
    interrupt.o(i.IntEnable) refers to interrupt.o(.constdata) for .constdata
    interrupt.o(i.IntIsEnabled) refers to interrupt.o(.constdata) for .constdata
    interrupt.o(i.IntMasterDisable) refers to cpu.o(.emb_text) for CPUcpsid
    interrupt.o(i.IntMasterEnable) refers to cpu.o(.emb_text) for CPUcpsie
    interrupt.o(i.IntPendClear) refers to interrupt.o(.constdata) for .constdata
    interrupt.o(i.IntPendSet) refers to interrupt.o(.constdata) for .constdata
    interrupt.o(i.IntPriorityGet) refers to interrupt.o(.constdata) for .constdata
    interrupt.o(i.IntPriorityGroupingGet) refers to interrupt.o(.constdata) for .constdata
    interrupt.o(i.IntPriorityGroupingSet) refers to interrupt.o(.constdata) for .constdata
    interrupt.o(i.IntPriorityMaskGet) refers to cpu.o(.emb_text) for CPUbasepriGet
    interrupt.o(i.IntPriorityMaskSet) refers to cpu.o(.emb_text) for CPUbasepriSet
    interrupt.o(i.IntPrioritySet) refers to interrupt.o(.constdata) for .constdata
    interrupt.o(i.IntRegister) refers to interrupt.o(vtable) for vtable
    interrupt.o(i.IntUnregister) refers to interrupt.o(i._IntDefaultHandler) for _IntDefaultHandler
    interrupt.o(i.IntUnregister) refers to interrupt.o(vtable) for vtable
    sysctl.o(i.SysCtlClockFreqSet) refers to sysctl.o(.constdata) for .constdata
    sysctl.o(i.SysCtlClockGet) refers to sysctl.o(.constdata) for .constdata
    sysctl.o(i.SysCtlClockSet) refers to sysctl.o(.emb_text) for SysCtlDelay
    sysctl.o(i.SysCtlDeepSleep) refers to cpu.o(.emb_text) for CPUwfi
    sysctl.o(i.SysCtlDeepSleepClockConfigSet) refers to sysctl.o(.constdata) for .constdata
    sysctl.o(i.SysCtlIntRegister) refers to interrupt.o(i.IntRegister) for IntRegister
    sysctl.o(i.SysCtlIntRegister) refers to interrupt.o(i.IntEnable) for IntEnable
    sysctl.o(i.SysCtlIntUnregister) refers to interrupt.o(i.IntDisable) for IntDisable
    sysctl.o(i.SysCtlIntUnregister) refers to interrupt.o(i.IntUnregister) for IntUnregister
    sysctl.o(i.SysCtlSleep) refers to cpu.o(.emb_text) for CPUwfi
    systick.o(i.SysTickIntRegister) refers to interrupt.o(i.IntRegister) for IntRegister
    systick.o(i.SysTickIntUnregister) refers to interrupt.o(i.IntUnregister) for IntUnregister
    timer.o(i.TimerIntRegister) refers to interrupt.o(i.IntRegister) for IntRegister
    timer.o(i.TimerIntRegister) refers to interrupt.o(i.IntEnable) for IntEnable
    timer.o(i.TimerIntRegister) refers to timer.o(.constdata) for .constdata
    timer.o(i.TimerIntUnregister) refers to interrupt.o(i.IntDisable) for IntDisable
    timer.o(i.TimerIntUnregister) refers to interrupt.o(i.IntUnregister) for IntUnregister
    timer.o(i.TimerIntUnregister) refers to timer.o(.constdata) for .constdata
    uart.o(i.UARTIntRegister) refers to interrupt.o(i.IntRegister) for IntRegister
    uart.o(i.UARTIntRegister) refers to interrupt.o(i.IntEnable) for IntEnable
    uart.o(i.UARTIntRegister) refers to uart.o(.constdata) for .constdata
    uart.o(i.UARTIntUnregister) refers to interrupt.o(i.IntDisable) for IntDisable
    uart.o(i.UARTIntUnregister) refers to interrupt.o(i.IntUnregister) for IntUnregister
    uart.o(i.UARTIntUnregister) refers to uart.o(.constdata) for .constdata
    context.o(i.GrContextInit) refers to context.o(.data) for .data
    context.o(i.GrContextInit) refers to string.o(i.GrDefaultStringRenderer) for GrDefaultStringRenderer
    context.o(i.GrContextInit) refers to context.o(.constdata) for .constdata
    context.o(i.GrLibInit) refers to context.o(.data) for .data
    context.o(.constdata) refers to charmap.o(i.GrMapISO8859_1_Unicode) for GrMapISO8859_1_Unicode
    fontfixed6x8.o(.constdata) refers to fontfixed6x8.o(.constdata) for g_pui8FontFixed6x8Data
    image.o(i.GrImageDraw) refers to image.o(i.InternalImageDraw) for InternalImageDraw
    image.o(i.GrTransparentImageDraw) refers to image.o(i.InternalImageDraw) for InternalImageDraw
    image.o(i.InternalImageDraw) refers to image.o(i.PixelTransparentDraw) for PixelTransparentDraw
    image.o(i.InternalImageDraw) refers to image.o(.bss) for .bss
    rectangle.o(i.GrRectDraw) refers to line.o(i.GrLineDrawH) for GrLineDrawH
    rectangle.o(i.GrRectDraw) refers to line.o(i.GrLineDrawV) for GrLineDrawV
    string.o(i.GrCodepageMapTableSet) refers to string.o(i.UpdateContextCharMapping) for UpdateContextCharMapping
    string.o(i.GrContextFontSet) refers to string.o(i.UpdateContextCharMapping) for UpdateContextCharMapping
    string.o(i.GrDefaultStringRenderer) refers to string.o(i.GrFontGlyphDataGet) for GrFontGlyphDataGet
    string.o(i.GrDefaultStringRenderer) refers to string.o(i.GrFontGlyphRender) for GrFontGlyphRender
    string.o(i.GrStringCodepageSet) refers to string.o(i.UpdateContextCharMapping) for UpdateContextCharMapping
    string.o(i.GrStringGet) refers to string.o(.data) for .data
    string.o(i.GrStringLanguageSet) refers to string.o(.data) for .data
    string.o(i.GrStringTableSet) refers to string.o(.data) for .data
    string.o(i.GrStringWidthGet) refers to string.o(i.GrFontGlyphDataGet) for GrFontGlyphDataGet
    charmap.o(i.GrMapISO8859_10_Unicode) refers to charmap.o(.constdata) for .constdata
    charmap.o(i.GrMapISO8859_13_Unicode) refers to charmap.o(.constdata) for .constdata
    charmap.o(i.GrMapISO8859_14_Unicode) refers to charmap.o(.constdata) for .constdata
    charmap.o(i.GrMapISO8859_16_Unicode) refers to charmap.o(.constdata) for .constdata
    charmap.o(i.GrMapISO8859_2_Unicode) refers to charmap.o(.constdata) for .constdata
    charmap.o(i.GrMapISO8859_3_Unicode) refers to charmap.o(.constdata) for .constdata
    charmap.o(i.GrMapISO8859_4_Unicode) refers to charmap.o(.constdata) for .constdata
    charmap.o(i.GrMapISO8859_7_Unicode) refers to charmap.o(.constdata) for .constdata
    charmap.o(i.GrMapUTF16BE_Unicode) refers to charmap.o(i.GrMapUTF16_Unicode) for GrMapUTF16_Unicode
    charmap.o(i.GrMapUTF16LE_Unicode) refers to charmap.o(i.GrMapUTF16_Unicode) for GrMapUTF16_Unicode
    charmap.o(i.GrMapWIN1250_Unicode) refers to charmap.o(.constdata) for .constdata
    charmap.o(i.GrMapWIN1251_Unicode) refers to charmap.o(.constdata) for .constdata
    charmap.o(i.GrMapWIN1252_Unicode) refers to charmap.o(.constdata) for .constdata
    charmap.o(i.GrMapWIN1253_Unicode) refers to charmap.o(.constdata) for .constdata
    charmap.o(i.GrMapWIN1254_Unicode) refers to charmap.o(.constdata) for .constdata
    ceil.o(i.__hardfp_ceil) refers (Special) to iusefp.o(.text) for __I$use$fp
    ceil.o(i.__hardfp_ceil) refers to dadd.o(.text) for __aeabi_dadd
    ceil.o(i.__hardfp_ceil) refers to cdrcmple.o(.text) for __aeabi_cdrcmple
    ceil.o(i.__softfp_ceil) refers (Special) to iusefp.o(.text) for __I$use$fp
    ceil.o(i.__softfp_ceil) refers to ceil.o(i.__hardfp_ceil) for __hardfp_ceil
    ceil.o(i.ceil) refers (Special) to iusefp.o(.text) for __I$use$fp
    ceil.o(i.ceil) refers to ceil.o(i.__hardfp_ceil) for __hardfp_ceil
    floor.o(i.__hardfp_floor) refers (Special) to iusefp.o(.text) for __I$use$fp
    floor.o(i.__hardfp_floor) refers to dadd.o(.text) for __aeabi_dadd
    floor.o(i.__hardfp_floor) refers to cdrcmple.o(.text) for __aeabi_cdrcmple
    floor.o(i.__softfp_floor) refers (Special) to iusefp.o(.text) for __I$use$fp
    floor.o(i.__softfp_floor) refers to floor.o(i.__hardfp_floor) for __hardfp_floor
    floor.o(i.floor) refers (Special) to iusefp.o(.text) for __I$use$fp
    floor.o(i.floor) refers to floor.o(i.__hardfp_floor) for __hardfp_floor
    pow.o(i.__hardfp_pow) refers (Special) to iusefp.o(.text) for __I$use$fp
    pow.o(i.__hardfp_pow) refers to dadd.o(.text) for __aeabi_dadd
    pow.o(i.__hardfp_pow) refers to errno.o(i.__set_errno) for __set_errno
    pow.o(i.__hardfp_pow) refers to dmul.o(.text) for __aeabi_dmul
    pow.o(i.__hardfp_pow) refers to ddiv.o(.text) for __aeabi_ddiv
    pow.o(i.__hardfp_pow) refers to sqrt.o(i.sqrt) for sqrt
    pow.o(i.__hardfp_pow) refers to fabs.o(i.fabs) for fabs
    pow.o(i.__hardfp_pow) refers to dunder.o(i.__mathlib_dbl_underflow) for __mathlib_dbl_underflow
    pow.o(i.__hardfp_pow) refers to qnan.o(.constdata) for __mathlib_zero
    pow.o(i.__hardfp_pow) refers to poly.o(i.__kernel_poly) for __kernel_poly
    pow.o(i.__hardfp_pow) refers to dflti.o(.text) for __aeabi_i2d
    pow.o(i.__hardfp_pow) refers to pow.o(.constdata) for .constdata
    pow.o(i.__hardfp_pow) refers to cdrcmple.o(.text) for __aeabi_cdrcmple
    pow.o(i.__hardfp_pow) refers to dscalb.o(.text) for __ARM_scalbn
    pow.o(i.__hardfp_pow) refers to fpclassify.o(i.__ARM_fpclassify) for __ARM_fpclassify
    pow.o(i.__softfp_pow) refers (Special) to iusefp.o(.text) for __I$use$fp
    pow.o(i.__softfp_pow) refers to pow.o(i.__hardfp_pow) for __hardfp_pow
    pow.o(i.pow) refers (Special) to iusefp.o(.text) for __I$use$fp
    pow.o(i.pow) refers to pow.o(i.__hardfp_pow) for __hardfp_pow
    pow.o(.constdata) refers (Special) to iusefp.o(.text) for __I$use$fp
    pow_x.o(i.____hardfp_pow$lsc) refers (Special) to iusefp.o(.text) for __I$use$fp
    pow_x.o(i.____hardfp_pow$lsc) refers to dadd.o(.text) for __aeabi_dadd
    pow_x.o(i.____hardfp_pow$lsc) refers to errno.o(i.__set_errno) for __set_errno
    pow_x.o(i.____hardfp_pow$lsc) refers to ddiv.o(.text) for __aeabi_ddiv
    pow_x.o(i.____hardfp_pow$lsc) refers to sqrt.o(i.sqrt) for sqrt
    pow_x.o(i.____hardfp_pow$lsc) refers to fabs.o(i.fabs) for fabs
    pow_x.o(i.____hardfp_pow$lsc) refers to dflti.o(.text) for __aeabi_i2d
    pow_x.o(i.____hardfp_pow$lsc) refers to dmul.o(.text) for __aeabi_dmul
    pow_x.o(i.____hardfp_pow$lsc) refers to qnan.o(.constdata) for __mathlib_zero
    pow_x.o(i.____hardfp_pow$lsc) refers to poly.o(i.__kernel_poly) for __kernel_poly
    pow_x.o(i.____hardfp_pow$lsc) refers to pow_x.o(.constdata) for .constdata
    pow_x.o(i.____hardfp_pow$lsc) refers to cdrcmple.o(.text) for __aeabi_cdrcmple
    pow_x.o(i.____hardfp_pow$lsc) refers to dscalb.o(.text) for __ARM_scalbn
    pow_x.o(i.____softfp_pow$lsc) refers (Special) to iusefp.o(.text) for __I$use$fp
    pow_x.o(i.____softfp_pow$lsc) refers to pow_x.o(i.____hardfp_pow$lsc) for ____hardfp_pow$lsc
    pow_x.o(i.__pow$lsc) refers (Special) to iusefp.o(.text) for __I$use$fp
    pow_x.o(i.__pow$lsc) refers to pow_x.o(i.____hardfp_pow$lsc) for ____hardfp_pow$lsc
    pow_x.o(.constdata) refers (Special) to iusefp.o(.text) for __I$use$fp
    entry.o(.ARM.Collect$$$$00000000) refers (Special) to entry10a.o(.ARM.Collect$$$$0000000D) for __rt_final_cpp
    entry.o(.ARM.Collect$$$$00000000) refers (Special) to entry11a.o(.ARM.Collect$$$$0000000F) for __rt_final_exit
    entry.o(.ARM.Collect$$$$00000000) refers (Special) to entry7b.o(.ARM.Collect$$$$00000008) for _main_clock
    entry.o(.ARM.Collect$$$$00000000) refers (Special) to entry8b.o(.ARM.Collect$$$$0000000A) for _main_cpp_init
    entry.o(.ARM.Collect$$$$00000000) refers (Special) to entry9a.o(.ARM.Collect$$$$0000000B) for _main_init
    entry.o(.ARM.Collect$$$$00000000) refers (Special) to entry5.o(.ARM.Collect$$$$00000004) for _main_scatterload
    entry.o(.ARM.Collect$$$$00000000) refers (Special) to entry2.o(.ARM.Collect$$$$00000001) for _main_stk
    uldiv.o(.text) refers to llushr.o(.text) for __aeabi_llsr
    uldiv.o(.text) refers to llshl.o(.text) for __aeabi_llsl
    printfb.o(i.__0fprintf$bare) refers to printfb.o(i._printf_core) for _printf_core
    printfb.o(i.__0fprintf$bare) refers to fputc.o(i.fputc) for fputc
    printfb.o(i.__0printf$bare) refers to printfb.o(i._printf_core) for _printf_core
    printfb.o(i.__0printf$bare) refers to fputc.o(i.fputc) for fputc
    printfb.o(i.__0printf$bare) refers to stdout.o(.data) for __stdout
    printfb.o(i.__0snprintf$bare) refers to printfb.o(i._printf_core) for _printf_core
    printfb.o(i.__0snprintf$bare) refers to printfb.o(i._snputc) for _snputc
    printfb.o(i.__0sprintf$bare) refers to printfb.o(i._printf_core) for _printf_core
    printfb.o(i.__0sprintf$bare) refers to printfb.o(i._sputc) for _sputc
    printfb.o(i.__0vfprintf$bare) refers to printfb.o(i._printf_core) for _printf_core
    printfb.o(i.__0vfprintf$bare) refers to fputc.o(i.fputc) for fputc
    printfb.o(i.__0vprintf$bare) refers to printfb.o(i._printf_core) for _printf_core
    printfb.o(i.__0vprintf$bare) refers to fputc.o(i.fputc) for fputc
    printfb.o(i.__0vprintf$bare) refers to stdout.o(.data) for __stdout
    printfb.o(i.__0vsnprintf$bare) refers to printfb.o(i._printf_core) for _printf_core
    printfb.o(i.__0vsnprintf$bare) refers to printfb.o(i._snputc) for _snputc
    printfb.o(i.__0vsprintf$bare) refers to printfb.o(i._printf_core) for _printf_core
    printfb.o(i.__0vsprintf$bare) refers to printfb.o(i._sputc) for _sputc
    printf0.o(i.__0fprintf$0) refers to printf0.o(i._printf_core) for _printf_core
    printf0.o(i.__0fprintf$0) refers to fputc.o(i.fputc) for fputc
    printf0.o(i.__0printf$0) refers to printf0.o(i._printf_core) for _printf_core
    printf0.o(i.__0printf$0) refers to fputc.o(i.fputc) for fputc
    printf0.o(i.__0printf$0) refers to stdout.o(.data) for __stdout
    printf0.o(i.__0snprintf$0) refers to printf0.o(i._printf_core) for _printf_core
    printf0.o(i.__0snprintf$0) refers to printf0.o(i._snputc) for _snputc
    printf0.o(i.__0sprintf$0) refers to printf0.o(i._printf_core) for _printf_core
    printf0.o(i.__0sprintf$0) refers to printf0.o(i._sputc) for _sputc
    printf0.o(i.__0vfprintf$0) refers to printf0.o(i._printf_core) for _printf_core
    printf0.o(i.__0vfprintf$0) refers to fputc.o(i.fputc) for fputc
    printf0.o(i.__0vprintf$0) refers to printf0.o(i._printf_core) for _printf_core
    printf0.o(i.__0vprintf$0) refers to fputc.o(i.fputc) for fputc
    printf0.o(i.__0vprintf$0) refers to stdout.o(.data) for __stdout
    printf0.o(i.__0vsnprintf$0) refers to printf0.o(i._printf_core) for _printf_core
    printf0.o(i.__0vsnprintf$0) refers to printf0.o(i._snputc) for _snputc
    printf0.o(i.__0vsprintf$0) refers to printf0.o(i._printf_core) for _printf_core
    printf0.o(i.__0vsprintf$0) refers to printf0.o(i._sputc) for _sputc
    printf1.o(i.__0fprintf$1) refers to printf1.o(i._printf_core) for _printf_core
    printf1.o(i.__0fprintf$1) refers to fputc.o(i.fputc) for fputc
    printf1.o(i.__0printf$1) refers to printf1.o(i._printf_core) for _printf_core
    printf1.o(i.__0printf$1) refers to fputc.o(i.fputc) for fputc
    printf1.o(i.__0printf$1) refers to stdout.o(.data) for __stdout
    printf1.o(i.__0snprintf$1) refers to printf1.o(i._printf_core) for _printf_core
    printf1.o(i.__0snprintf$1) refers to printf1.o(i._snputc) for _snputc
    printf1.o(i.__0sprintf$1) refers to printf1.o(i._printf_core) for _printf_core
    printf1.o(i.__0sprintf$1) refers to printf1.o(i._sputc) for _sputc
    printf1.o(i.__0vfprintf$1) refers to printf1.o(i._printf_core) for _printf_core
    printf1.o(i.__0vfprintf$1) refers to fputc.o(i.fputc) for fputc
    printf1.o(i.__0vprintf$1) refers to printf1.o(i._printf_core) for _printf_core
    printf1.o(i.__0vprintf$1) refers to fputc.o(i.fputc) for fputc
    printf1.o(i.__0vprintf$1) refers to stdout.o(.data) for __stdout
    printf1.o(i.__0vsnprintf$1) refers to printf1.o(i._printf_core) for _printf_core
    printf1.o(i.__0vsnprintf$1) refers to printf1.o(i._snputc) for _snputc
    printf1.o(i.__0vsprintf$1) refers to printf1.o(i._printf_core) for _printf_core
    printf1.o(i.__0vsprintf$1) refers to printf1.o(i._sputc) for _sputc
    printf1.o(i._printf_core) refers to uidiv.o(.text) for __aeabi_uidivmod
    printf2.o(i.__0fprintf$2) refers to printf2.o(i._printf_core) for _printf_core
    printf2.o(i.__0fprintf$2) refers to fputc.o(i.fputc) for fputc
    printf2.o(i.__0printf$2) refers to printf2.o(i._printf_core) for _printf_core
    printf2.o(i.__0printf$2) refers to fputc.o(i.fputc) for fputc
    printf2.o(i.__0printf$2) refers to stdout.o(.data) for __stdout
    printf2.o(i.__0snprintf$2) refers to printf2.o(i._printf_core) for _printf_core
    printf2.o(i.__0snprintf$2) refers to printf2.o(i._snputc) for _snputc
    printf2.o(i.__0sprintf$2) refers to printf2.o(i._printf_core) for _printf_core
    printf2.o(i.__0sprintf$2) refers to printf2.o(i._sputc) for _sputc
    printf2.o(i.__0vfprintf$2) refers to printf2.o(i._printf_core) for _printf_core
    printf2.o(i.__0vfprintf$2) refers to fputc.o(i.fputc) for fputc
    printf2.o(i.__0vprintf$2) refers to printf2.o(i._printf_core) for _printf_core
    printf2.o(i.__0vprintf$2) refers to fputc.o(i.fputc) for fputc
    printf2.o(i.__0vprintf$2) refers to stdout.o(.data) for __stdout
    printf2.o(i.__0vsnprintf$2) refers to printf2.o(i._printf_core) for _printf_core
    printf2.o(i.__0vsnprintf$2) refers to printf2.o(i._snputc) for _snputc
    printf2.o(i.__0vsprintf$2) refers to printf2.o(i._printf_core) for _printf_core
    printf2.o(i.__0vsprintf$2) refers to printf2.o(i._sputc) for _sputc
    printf3.o(i.__0fprintf$3) refers to printf3.o(i._printf_core) for _printf_core
    printf3.o(i.__0fprintf$3) refers to fputc.o(i.fputc) for fputc
    printf3.o(i.__0printf$3) refers to printf3.o(i._printf_core) for _printf_core
    printf3.o(i.__0printf$3) refers to fputc.o(i.fputc) for fputc
    printf3.o(i.__0printf$3) refers to stdout.o(.data) for __stdout
    printf3.o(i.__0snprintf$3) refers to printf3.o(i._printf_core) for _printf_core
    printf3.o(i.__0snprintf$3) refers to printf3.o(i._snputc) for _snputc
    printf3.o(i.__0sprintf$3) refers to printf3.o(i._printf_core) for _printf_core
    printf3.o(i.__0sprintf$3) refers to printf3.o(i._sputc) for _sputc
    printf3.o(i.__0vfprintf$3) refers to printf3.o(i._printf_core) for _printf_core
    printf3.o(i.__0vfprintf$3) refers to fputc.o(i.fputc) for fputc
    printf3.o(i.__0vprintf$3) refers to printf3.o(i._printf_core) for _printf_core
    printf3.o(i.__0vprintf$3) refers to fputc.o(i.fputc) for fputc
    printf3.o(i.__0vprintf$3) refers to stdout.o(.data) for __stdout
    printf3.o(i.__0vsnprintf$3) refers to printf3.o(i._printf_core) for _printf_core
    printf3.o(i.__0vsnprintf$3) refers to printf3.o(i._snputc) for _snputc
    printf3.o(i.__0vsprintf$3) refers to printf3.o(i._printf_core) for _printf_core
    printf3.o(i.__0vsprintf$3) refers to printf3.o(i._sputc) for _sputc
    printf3.o(i._printf_core) refers to uidiv.o(.text) for __aeabi_uidivmod
    printf4.o(i.__0fprintf$4) refers to printf4.o(i._printf_core) for _printf_core
    printf4.o(i.__0fprintf$4) refers to fputc.o(i.fputc) for fputc
    printf4.o(i.__0printf$4) refers to printf4.o(i._printf_core) for _printf_core
    printf4.o(i.__0printf$4) refers to fputc.o(i.fputc) for fputc
    printf4.o(i.__0printf$4) refers to stdout.o(.data) for __stdout
    printf4.o(i.__0snprintf$4) refers to printf4.o(i._printf_core) for _printf_core
    printf4.o(i.__0snprintf$4) refers to printf4.o(i._snputc) for _snputc
    printf4.o(i.__0sprintf$4) refers to printf4.o(i._printf_core) for _printf_core
    printf4.o(i.__0sprintf$4) refers to printf4.o(i._sputc) for _sputc
    printf4.o(i.__0vfprintf$4) refers to printf4.o(i._printf_core) for _printf_core
    printf4.o(i.__0vfprintf$4) refers to fputc.o(i.fputc) for fputc
    printf4.o(i.__0vprintf$4) refers to printf4.o(i._printf_core) for _printf_core
    printf4.o(i.__0vprintf$4) refers to fputc.o(i.fputc) for fputc
    printf4.o(i.__0vprintf$4) refers to stdout.o(.data) for __stdout
    printf4.o(i.__0vsnprintf$4) refers to printf4.o(i._printf_core) for _printf_core
    printf4.o(i.__0vsnprintf$4) refers to printf4.o(i._snputc) for _snputc
    printf4.o(i.__0vsprintf$4) refers to printf4.o(i._printf_core) for _printf_core
    printf4.o(i.__0vsprintf$4) refers to printf4.o(i._sputc) for _sputc
    printf4.o(i._printf_core) refers to uldiv.o(.text) for __aeabi_uldivmod
    printf5.o(i.__0fprintf$5) refers to printf5.o(i._printf_core) for _printf_core
    printf5.o(i.__0fprintf$5) refers to fputc.o(i.fputc) for fputc
    printf5.o(i.__0printf$5) refers to printf5.o(i._printf_core) for _printf_core
    printf5.o(i.__0printf$5) refers to fputc.o(i.fputc) for fputc
    printf5.o(i.__0printf$5) refers to stdout.o(.data) for __stdout
    printf5.o(i.__0snprintf$5) refers to printf5.o(i._printf_core) for _printf_core
    printf5.o(i.__0snprintf$5) refers to printf5.o(i._snputc) for _snputc
    printf5.o(i.__0sprintf$5) refers to printf5.o(i._printf_core) for _printf_core
    printf5.o(i.__0sprintf$5) refers to printf5.o(i._sputc) for _sputc
    printf5.o(i.__0vfprintf$5) refers to printf5.o(i._printf_core) for _printf_core
    printf5.o(i.__0vfprintf$5) refers to fputc.o(i.fputc) for fputc
    printf5.o(i.__0vprintf$5) refers to printf5.o(i._printf_core) for _printf_core
    printf5.o(i.__0vprintf$5) refers to fputc.o(i.fputc) for fputc
    printf5.o(i.__0vprintf$5) refers to stdout.o(.data) for __stdout
    printf5.o(i.__0vsnprintf$5) refers to printf5.o(i._printf_core) for _printf_core
    printf5.o(i.__0vsnprintf$5) refers to printf5.o(i._snputc) for _snputc
    printf5.o(i.__0vsprintf$5) refers to printf5.o(i._printf_core) for _printf_core
    printf5.o(i.__0vsprintf$5) refers to printf5.o(i._sputc) for _sputc
    printf5.o(i._printf_core) refers to uldiv.o(.text) for __aeabi_uldivmod
    printf6.o(i.__0fprintf$6) refers to printf6.o(i._printf_core) for _printf_core
    printf6.o(i.__0fprintf$6) refers to fputc.o(i.fputc) for fputc
    printf6.o(i.__0printf$6) refers to printf6.o(i._printf_core) for _printf_core
    printf6.o(i.__0printf$6) refers to fputc.o(i.fputc) for fputc
    printf6.o(i.__0printf$6) refers to stdout.o(.data) for __stdout
    printf6.o(i.__0snprintf$6) refers to printf6.o(i._printf_core) for _printf_core
    printf6.o(i.__0snprintf$6) refers to printf6.o(i._snputc) for _snputc
    printf6.o(i.__0sprintf$6) refers to printf6.o(i._printf_core) for _printf_core
    printf6.o(i.__0sprintf$6) refers to printf6.o(i._sputc) for _sputc
    printf6.o(i.__0vfprintf$6) refers to printf6.o(i._printf_core) for _printf_core
    printf6.o(i.__0vfprintf$6) refers to fputc.o(i.fputc) for fputc
    printf6.o(i.__0vprintf$6) refers to printf6.o(i._printf_core) for _printf_core
    printf6.o(i.__0vprintf$6) refers to fputc.o(i.fputc) for fputc
    printf6.o(i.__0vprintf$6) refers to stdout.o(.data) for __stdout
    printf6.o(i.__0vsnprintf$6) refers to printf6.o(i._printf_core) for _printf_core
    printf6.o(i.__0vsnprintf$6) refers to printf6.o(i._snputc) for _snputc
    printf6.o(i.__0vsprintf$6) refers to printf6.o(i._printf_core) for _printf_core
    printf6.o(i.__0vsprintf$6) refers to printf6.o(i._sputc) for _sputc
    printf6.o(i._printf_core) refers to printf6.o(i._printf_pre_padding) for _printf_pre_padding
    printf6.o(i._printf_core) refers to uidiv.o(.text) for __aeabi_uidivmod
    printf6.o(i._printf_core) refers to printf6.o(i._printf_post_padding) for _printf_post_padding
    printf7.o(i.__0fprintf$7) refers to printf7.o(i._printf_core) for _printf_core
    printf7.o(i.__0fprintf$7) refers to fputc.o(i.fputc) for fputc
    printf7.o(i.__0printf$7) refers to printf7.o(i._printf_core) for _printf_core
    printf7.o(i.__0printf$7) refers to fputc.o(i.fputc) for fputc
    printf7.o(i.__0printf$7) refers to stdout.o(.data) for __stdout
    printf7.o(i.__0snprintf$7) refers to printf7.o(i._printf_core) for _printf_core
    printf7.o(i.__0snprintf$7) refers to printf7.o(i._snputc) for _snputc
    printf7.o(i.__0sprintf$7) refers to printf7.o(i._printf_core) for _printf_core
    printf7.o(i.__0sprintf$7) refers to printf7.o(i._sputc) for _sputc
    printf7.o(i.__0vfprintf$7) refers to printf7.o(i._printf_core) for _printf_core
    printf7.o(i.__0vfprintf$7) refers to fputc.o(i.fputc) for fputc
    printf7.o(i.__0vprintf$7) refers to printf7.o(i._printf_core) for _printf_core
    printf7.o(i.__0vprintf$7) refers to fputc.o(i.fputc) for fputc
    printf7.o(i.__0vprintf$7) refers to stdout.o(.data) for __stdout
    printf7.o(i.__0vsnprintf$7) refers to printf7.o(i._printf_core) for _printf_core
    printf7.o(i.__0vsnprintf$7) refers to printf7.o(i._snputc) for _snputc
    printf7.o(i.__0vsprintf$7) refers to printf7.o(i._printf_core) for _printf_core
    printf7.o(i.__0vsprintf$7) refers to printf7.o(i._sputc) for _sputc
    printf7.o(i._printf_core) refers to printf7.o(i._printf_pre_padding) for _printf_pre_padding
    printf7.o(i._printf_core) refers to uldiv.o(.text) for __aeabi_uldivmod
    printf7.o(i._printf_core) refers to printf7.o(i._printf_post_padding) for _printf_post_padding
    printf8.o(i.__0fprintf$8) refers to printf8.o(i._printf_core) for _printf_core
    printf8.o(i.__0fprintf$8) refers to fputc.o(i.fputc) for fputc
    printf8.o(i.__0printf$8) refers to printf8.o(i._printf_core) for _printf_core
    printf8.o(i.__0printf$8) refers to fputc.o(i.fputc) for fputc
    printf8.o(i.__0printf$8) refers to stdout.o(.data) for __stdout
    printf8.o(i.__0snprintf$8) refers to printf8.o(i._printf_core) for _printf_core
    printf8.o(i.__0snprintf$8) refers to printf8.o(i._snputc) for _snputc
    printf8.o(i.__0sprintf$8) refers to printf8.o(i._printf_core) for _printf_core
    printf8.o(i.__0sprintf$8) refers to printf8.o(i._sputc) for _sputc
    printf8.o(i.__0vfprintf$8) refers to printf8.o(i._printf_core) for _printf_core
    printf8.o(i.__0vfprintf$8) refers to fputc.o(i.fputc) for fputc
    printf8.o(i.__0vprintf$8) refers to printf8.o(i._printf_core) for _printf_core
    printf8.o(i.__0vprintf$8) refers to fputc.o(i.fputc) for fputc
    printf8.o(i.__0vprintf$8) refers to stdout.o(.data) for __stdout
    printf8.o(i.__0vsnprintf$8) refers to printf8.o(i._printf_core) for _printf_core
    printf8.o(i.__0vsnprintf$8) refers to printf8.o(i._snputc) for _snputc
    printf8.o(i.__0vsprintf$8) refers to printf8.o(i._printf_core) for _printf_core
    printf8.o(i.__0vsprintf$8) refers to printf8.o(i._sputc) for _sputc
    printf8.o(i._printf_core) refers to printf8.o(i._printf_pre_padding) for _printf_pre_padding
    printf8.o(i._printf_core) refers to uldiv.o(.text) for __aeabi_uldivmod
    printf8.o(i._printf_core) refers to printf8.o(i._printf_post_padding) for _printf_post_padding
    printfa.o(i.__0fprintf) refers (Special) to iusefp.o(.text) for __I$use$fp
    printfa.o(i.__0fprintf) refers to printfa.o(i._printf_core) for _printf_core
    printfa.o(i.__0fprintf) refers to fputc.o(i.fputc) for fputc
    printfa.o(i.__0printf) refers (Special) to iusefp.o(.text) for __I$use$fp
    printfa.o(i.__0printf) refers to printfa.o(i._printf_core) for _printf_core
    printfa.o(i.__0printf) refers to fputc.o(i.fputc) for fputc
    printfa.o(i.__0printf) refers to stdout.o(.data) for __stdout
    printfa.o(i.__0snprintf) refers (Special) to iusefp.o(.text) for __I$use$fp
    printfa.o(i.__0snprintf) refers to printfa.o(i._printf_core) for _printf_core
    printfa.o(i.__0snprintf) refers to printfa.o(i._snputc) for _snputc
    printfa.o(i.__0sprintf) refers (Special) to iusefp.o(.text) for __I$use$fp
    printfa.o(i.__0sprintf) refers to printfa.o(i._printf_core) for _printf_core
    printfa.o(i.__0sprintf) refers to printfa.o(i._sputc) for _sputc
    printfa.o(i.__0vfprintf) refers (Special) to iusefp.o(.text) for __I$use$fp
    printfa.o(i.__0vfprintf) refers to printfa.o(i._printf_core) for _printf_core
    printfa.o(i.__0vfprintf) refers to fputc.o(i.fputc) for fputc
    printfa.o(i.__0vprintf) refers (Special) to iusefp.o(.text) for __I$use$fp
    printfa.o(i.__0vprintf) refers to printfa.o(i._printf_core) for _printf_core
    printfa.o(i.__0vprintf) refers to fputc.o(i.fputc) for fputc
    printfa.o(i.__0vprintf) refers to stdout.o(.data) for __stdout
    printfa.o(i.__0vsnprintf) refers (Special) to iusefp.o(.text) for __I$use$fp
    printfa.o(i.__0vsnprintf) refers to printfa.o(i._printf_core) for _printf_core
    printfa.o(i.__0vsnprintf) refers to printfa.o(i._snputc) for _snputc
    printfa.o(i.__0vsprintf) refers (Special) to iusefp.o(.text) for __I$use$fp
    printfa.o(i.__0vsprintf) refers to printfa.o(i._printf_core) for _printf_core
    printfa.o(i.__0vsprintf) refers to printfa.o(i._sputc) for _sputc
    printfa.o(i._fp_digits) refers (Special) to iusefp.o(.text) for __I$use$fp
    printfa.o(i._fp_digits) refers to dmul.o(.text) for __aeabi_dmul
    printfa.o(i._fp_digits) refers to ddiv.o(.text) for __aeabi_ddiv
    printfa.o(i._fp_digits) refers to cdrcmple.o(.text) for __aeabi_cdrcmple
    printfa.o(i._fp_digits) refers to dadd.o(.text) for __aeabi_dadd
    printfa.o(i._fp_digits) refers to dfixul.o(.text) for __aeabi_d2ulz
    printfa.o(i._fp_digits) refers to uldiv.o(.text) for __aeabi_uldivmod
    printfa.o(i._printf_core) refers (Special) to iusefp.o(.text) for __I$use$fp
    printfa.o(i._printf_core) refers to printfa.o(i._printf_pre_padding) for _printf_pre_padding
    printfa.o(i._printf_core) refers to uldiv.o(.text) for __aeabi_uldivmod
    printfa.o(i._printf_core) refers to printfa.o(i._printf_post_padding) for _printf_post_padding
    printfa.o(i._printf_core) refers to printfa.o(i._fp_digits) for _fp_digits
    printfa.o(i._printf_core) refers to uidiv.o(.text) for __aeabi_uidivmod
    printfa.o(i._printf_post_padding) refers (Special) to iusefp.o(.text) for __I$use$fp
    printfa.o(i._printf_pre_padding) refers (Special) to iusefp.o(.text) for __I$use$fp
    printfa.o(i._snputc) refers (Special) to iusefp.o(.text) for __I$use$fp
    printfa.o(i._sputc) refers (Special) to iusefp.o(.text) for __I$use$fp
    strtoull.o(.text) refers to __strtoull.o(.text) for __strtoull
    atoi.o(.text) refers to errno.o(i.__aeabi_errno_addr) for __aeabi_errno_addr
    atoi.o(.text) refers to strtol.o(.text) for strtol
    dadd.o(.text) refers (Special) to iusefp.o(.text) for __I$use$fp
    dadd.o(.text) refers to llshl.o(.text) for __aeabi_llsl
    dadd.o(.text) refers to llsshr.o(.text) for __aeabi_lasr
    dadd.o(.text) refers to depilogue.o(.text) for _double_epilogue
    dmul.o(.text) refers (Special) to iusefp.o(.text) for __I$use$fp
    dmul.o(.text) refers to depilogue.o(.text) for _double_epilogue
    ddiv.o(.text) refers (Special) to iusefp.o(.text) for __I$use$fp
    ddiv.o(.text) refers to depilogue.o(.text) for _double_round
    dflti.o(.text) refers (Special) to iusefp.o(.text) for __I$use$fp
    dflti.o(.text) refers to depilogue.o(.text) for _double_epilogue
    dfltul.o(.text) refers (Special) to iusefp.o(.text) for __I$use$fp
    dfltul.o(.text) refers to depilogue.o(.text) for _double_epilogue
    dfixi.o(.text) refers (Special) to iusefp.o(.text) for __I$use$fp
    dfixi.o(.text) refers to llushr.o(.text) for __aeabi_llsr
    dfixul.o(.text) refers (Special) to iusefp.o(.text) for __I$use$fp
    dfixul.o(.text) refers to llushr.o(.text) for __aeabi_llsr
    dfixul.o(.text) refers to llshl.o(.text) for __aeabi_llsl
    f2d.o(.text) refers (Special) to iusefp.o(.text) for __I$use$fp
    cdcmple.o(.text) refers (Special) to iusefp.o(.text) for __I$use$fp
    cdrcmple.o(.text) refers (Special) to iusefp.o(.text) for __I$use$fp
    d2f.o(.text) refers (Special) to iusefp.o(.text) for __I$use$fp
    d2f.o(.text) refers to fepilogue.o(.text) for _float_round
    dunder.o(i.__mathlib_dbl_underflow) refers to dmul.o(.text) for __aeabi_dmul
    fabs.o(i.__hardfp_fabs) refers (Special) to iusefp.o(.text) for __I$use$fp
    fabs.o(i.__softfp_fabs) refers (Special) to iusefp.o(.text) for __I$use$fp
    fabs.o(i.fabs) refers (Special) to iusefp.o(.text) for __I$use$fp
    fpclassify.o(i.__ARM_fpclassify) refers (Special) to iusefp.o(.text) for __I$use$fp
    poly.o(i.__kernel_poly) refers (Special) to iusefp.o(.text) for __I$use$fp
    poly.o(i.__kernel_poly) refers to dmul.o(.text) for __aeabi_dmul
    poly.o(i.__kernel_poly) refers to dadd.o(.text) for __aeabi_dadd
    qnan.o(.constdata) refers (Special) to iusefp.o(.text) for __I$use$fp
    sqrt.o(i.__hardfp_sqrt) refers (Special) to iusefp.o(.text) for __I$use$fp
    sqrt.o(i.__hardfp_sqrt) refers to dsqrt.o(.text) for _dsqrt
    sqrt.o(i.__hardfp_sqrt) refers to errno.o(i.__set_errno) for __set_errno
    sqrt.o(i.__softfp_sqrt) refers (Special) to iusefp.o(.text) for __I$use$fp
    sqrt.o(i.__softfp_sqrt) refers to dsqrt.o(.text) for _dsqrt
    sqrt.o(i.__softfp_sqrt) refers to errno.o(i.__set_errno) for __set_errno
    sqrt.o(i.sqrt) refers (Special) to iusefp.o(.text) for __I$use$fp
    sqrt.o(i.sqrt) refers to dsqrt.o(.text) for _dsqrt
    sqrt.o(i.sqrt) refers to errno.o(i.__set_errno) for __set_errno
    sqrt_x.o(i.____hardfp_sqrt$lsc) refers (Special) to iusefp.o(.text) for __I$use$fp
    sqrt_x.o(i.____hardfp_sqrt$lsc) refers to cdcmple.o(.text) for __aeabi_cdcmple
    sqrt_x.o(i.____hardfp_sqrt$lsc) refers to errno.o(i.__set_errno) for __set_errno
    sqrt_x.o(i.____hardfp_sqrt$lsc) refers to dsqrt.o(.text) for _dsqrt
    sqrt_x.o(i.____softfp_sqrt$lsc) refers (Special) to iusefp.o(.text) for __I$use$fp
    sqrt_x.o(i.____softfp_sqrt$lsc) refers to cdcmple.o(.text) for __aeabi_cdcmple
    sqrt_x.o(i.____softfp_sqrt$lsc) refers to errno.o(i.__set_errno) for __set_errno
    sqrt_x.o(i.____softfp_sqrt$lsc) refers to dsqrt.o(.text) for _dsqrt
    sqrt_x.o(i.__sqrt$lsc) refers (Special) to iusefp.o(.text) for __I$use$fp
    sqrt_x.o(i.__sqrt$lsc) refers to cdcmple.o(.text) for __aeabi_cdcmple
    sqrt_x.o(i.__sqrt$lsc) refers to errno.o(i.__set_errno) for __set_errno
    sqrt_x.o(i.__sqrt$lsc) refers to dsqrt.o(.text) for _dsqrt
    entry2.o(.ARM.Collect$$$$00000001) refers to entry2.o(.ARM.Collect$$$$00002712) for __lit__00000000
    entry2.o(.ARM.Collect$$$$00002712) refers to startup_rvmdk.o(STACK) for __initial_sp
    entry2.o(__vectab_stack_and_reset_area) refers to startup_rvmdk.o(STACK) for __initial_sp
    entry2.o(__vectab_stack_and_reset_area) refers to entry.o(.ARM.Collect$$$$00000000) for __main
    entry5.o(.ARM.Collect$$$$00000004) refers to init.o(.text) for __scatterload
    entry9a.o(.ARM.Collect$$$$0000000B) refers to main.o(i.main) for main
    entry9b.o(.ARM.Collect$$$$0000000C) refers to main.o(i.main) for main
    fputc.o(i.fputc) refers (Special) to iusesemip.o(.text) for __I$use$semihosting$fputc
    fputc.o(i.fputc) refers (Special) to semi.o(.text) for __semihosting_library_function
    errno.o(i.__aeabi_errno_addr) refers to errno.o(.data) for .data
    errno.o(i.__read_errno) refers to errno.o(.data) for .data
    errno.o(i.__set_errno) refers to errno.o(.data) for .data
    strtol.o(.text) refers to ctype_o.o(.text) for __rt_ctype_table
    strtol.o(.text) refers to _strtoul.o(.text) for _strtoul
    strtol.o(.text) refers to errno.o(i.__aeabi_errno_addr) for __aeabi_errno_addr
    __strtoull.o(.text) refers to errno.o(i.__aeabi_errno_addr) for __aeabi_errno_addr
    __strtoull.o(.text) refers to ctype_o.o(.text) for __rt_ctype_table
    __strtoull.o(.text) refers to _strtoull.o(.text) for _strtoull
    depilogue.o(.text) refers to llshl.o(.text) for __aeabi_llsl
    depilogue.o(.text) refers to llushr.o(.text) for __aeabi_llsr
    init.o(.text) refers to entry5.o(.ARM.Collect$$$$00000004) for __main_after_scatterload
    ctype_o.o(.text) refers to ctype_o.o(.constdata) for .constdata
    ctype_o.o(.constdata) refers to ctype_o.o(.constdata) for __ctype_table
    isalnum_o.o(.text) refers to ctype_o.o(.text) for __rt_ctype_table
    isalpha_o.o(.text) refers to ctype_o.o(.text) for __rt_ctype_table
    isblank_o.o(.text) refers to ctype_o.o(.constdata) for __ctype_table
    iscntrl_o.o(.text) refers to ctype_o.o(.text) for __rt_ctype_table
    isdigit_o.o(.text) refers to ctype_o.o(.text) for __rt_ctype_table
    isgraph_o.o(.text) refers to ctype_o.o(.text) for __rt_ctype_table
    islower_o.o(.text) refers to ctype_o.o(.text) for __rt_ctype_table
    isprint_o.o(.text) refers to ctype_o.o(.text) for __rt_ctype_table
    ispunct_o.o(.text) refers to ctype_o.o(.text) for __rt_ctype_table
    isspace_o.o(.text) refers to ctype_o.o(.text) for __rt_ctype_table
    isupper_o.o(.text) refers to ctype_o.o(.text) for __rt_ctype_table
    isxdigit_o.o(.text) refers to ctype_o.o(.text) for __rt_ctype_table
    _strtoul.o(.text) refers to _chval.o(.text) for _chval
    _strtoul.o(.text) refers to errno.o(i.__aeabi_errno_addr) for __aeabi_errno_addr
    _strtoull.o(.text) refers to _chval.o(.text) for _chval
    _strtoull.o(.text) refers to errno.o(i.__aeabi_errno_addr) for __aeabi_errno_addr
    dsqrt.o(.text) refers to llushr.o(.text) for __aeabi_llsr
    dsqrt.o(.text) refers to depilogue.o(.text) for _double_round


==============================================================================

Removing Unused input sections from the image.

    Removing startup_rvmdk.o(HEAP), (0 bytes).
    Removing startup_rvmdk.o(.text), (0 bytes).
    Removing main.o(i.Init_PortG), (88 bytes).
    Removing main.o(i.hibernateActivate), (36 bytes).
    Removing gsm_fona808.o(i.GSMRestartChk), (2 bytes).
    Removing strfunc.o(i.digit2dec), (18 bytes).
    Removing strfunc.o(i.mstrcmp), (32 bytes).
    Removing strfunc.o(i.num2str), (344 bytes).
    Removing strfunc.o(i.replaceInArray), (26 bytes).
    Removing strfunc.o(i.stringncopy), (20 bytes).
    Removing lcd.o(i.lcd_cls), (16 bytes).
    Removing lcd.o(i.lcd_command), (168 bytes).
    Removing lcd.o(i.lcd_goto), (58 bytes).
    Removing lcd.o(i.lcd_init), (176 bytes).
    Removing lcd.o(i.lcd_putch), (152 bytes).
    Removing lcd.o(i.lcd_puts), (22 bytes).
    Removing scheduler.o(i.SchedulerTaskDisable), (32 bytes).
    Removing scheduler.o(i.SchedulerTaskEnable), (88 bytes).
    Removing scheduler.o(i.SchedulerTickCountGet), (12 bytes).
    Removing ustdlib.o(i.urand), (36 bytes).
    Removing ustdlib.o(i.usnprintf), (38 bytes).
    Removing ustdlib.o(i.usrand), (12 bytes).
    Removing ustdlib.o(i.ustrcasecmp), (20 bytes).
    Removing ustdlib.o(i.ustrncasecmp), (94 bytes).
    Removing ustdlib.o(i.ustrtoul), (212 bytes).
    Removing ustdlib.o(.data), (4 bytes).
    Removing ff.o(i.dir_remove), (96 bytes).
    Removing ff.o(i.f_chmod), (92 bytes).
    Removing ff.o(i.f_rename), (284 bytes).
    Removing ff.o(i.f_stat), (68 bytes).
    Removing ff.o(i.f_truncate), (154 bytes).
    Removing ff.o(i.f_unlink), (180 bytes).
    Removing ff.o(i.f_utime), (96 bytes).
    Removing uartstdio.o(i.UARTgetc), (24 bytes).
    Removing gpio.o(i.GPIOADCTriggerDisable), (14 bytes).
    Removing gpio.o(i.GPIOADCTriggerEnable), (14 bytes).
    Removing gpio.o(i.GPIODMATriggerDisable), (14 bytes).
    Removing gpio.o(i.GPIODMATriggerEnable), (14 bytes).
    Removing gpio.o(i.GPIODirModeGet), (34 bytes).
    Removing gpio.o(i.GPIOIntDisable), (14 bytes).
    Removing gpio.o(i.GPIOIntRegister), (88 bytes).
    Removing gpio.o(i.GPIOIntStatus), (14 bytes).
    Removing gpio.o(i.GPIOIntTypeGet), (68 bytes).
    Removing gpio.o(i.GPIOIntUnregister), (88 bytes).
    Removing gpio.o(i.GPIOPadConfigGet), (204 bytes).
    Removing gpio.o(i.GPIOPinConfigure), (72 bytes).
    Removing gpio.o(i.GPIOPinTypeADC), (28 bytes).
    Removing gpio.o(i.GPIOPinTypeCAN), (28 bytes).
    Removing gpio.o(i.GPIOPinTypeCIR), (28 bytes).
    Removing gpio.o(i.GPIOPinTypeComparator), (28 bytes).
    Removing gpio.o(i.GPIOPinTypeEPI), (28 bytes).
    Removing gpio.o(i.GPIOPinTypeEthernetLED), (28 bytes).
    Removing gpio.o(i.GPIOPinTypeEthernetMII), (28 bytes).
    Removing gpio.o(i.GPIOPinTypeFan), (28 bytes).
    Removing gpio.o(i.GPIOPinTypeGPIOOutput), (28 bytes).
    Removing gpio.o(i.GPIOPinTypeGPIOOutputOD), (28 bytes).
    Removing gpio.o(i.GPIOPinTypeI2C), (28 bytes).
    Removing gpio.o(i.GPIOPinTypeI2CSCL), (28 bytes).
    Removing gpio.o(i.GPIOPinTypeKBColumn), (28 bytes).
    Removing gpio.o(i.GPIOPinTypeKBRow), (28 bytes).
    Removing gpio.o(i.GPIOPinTypeLCD), (28 bytes).
    Removing gpio.o(i.GPIOPinTypeLEDSeq), (28 bytes).
    Removing gpio.o(i.GPIOPinTypeLPC), (28 bytes).
    Removing gpio.o(i.GPIOPinTypePECIRx), (28 bytes).
    Removing gpio.o(i.GPIOPinTypePECITx), (28 bytes).
    Removing gpio.o(i.GPIOPinTypePWM), (28 bytes).
    Removing gpio.o(i.GPIOPinTypeQEI), (28 bytes).
    Removing gpio.o(i.GPIOPinTypeSSI), (28 bytes).
    Removing gpio.o(i.GPIOPinTypeTimer), (28 bytes).
    Removing gpio.o(i.GPIOPinTypeUART), (28 bytes).
    Removing gpio.o(i.GPIOPinTypeUSBAnalog), (28 bytes).
    Removing gpio.o(i.GPIOPinTypeUSBDigital), (28 bytes).
    Removing gpio.o(i.GPIOPinTypeWakeHigh), (30 bytes).
    Removing gpio.o(i.GPIOPinTypeWakeLow), (30 bytes).
    Removing gpio.o(i.GPIOPinWakeStatus), (6 bytes).
    Removing gpio.o(i.GPIOPinWrite), (6 bytes).
    Removing gpio.o(.constdata), (528 bytes).
    Removing hibernate.o(i.HibernateBatCheckDone), (16 bytes).
    Removing hibernate.o(i.HibernateBatCheckStart), (24 bytes).
    Removing hibernate.o(i.HibernateCalendarGet), (120 bytes).
    Removing hibernate.o(i.HibernateCalendarMatchGet), (120 bytes).
    Removing hibernate.o(i.HibernateCalendarMatchSet), (12 bytes).
    Removing hibernate.o(i.HibernateCalendarSet), (12 bytes).
    Removing hibernate.o(i.HibernateCounterMode), (20 bytes).
    Removing hibernate.o(i.HibernateDataGet), (36 bytes).
    Removing hibernate.o(i.HibernateDisable), (24 bytes).
    Removing hibernate.o(i.HibernateGPIORetentionDisable), (28 bytes).
    Removing hibernate.o(i.HibernateGPIORetentionEnable), (28 bytes).
    Removing hibernate.o(i.HibernateGPIORetentionGet), (28 bytes).
    Removing hibernate.o(i.HibernateIntDisable), (24 bytes).
    Removing hibernate.o(i.HibernateIntEnable), (24 bytes).
    Removing hibernate.o(i.HibernateIntRegister), (52 bytes).
    Removing hibernate.o(i.HibernateIntUnregister), (48 bytes).
    Removing hibernate.o(i.HibernateLowBatGet), (16 bytes).
    Removing hibernate.o(i.HibernateLowBatSet), (32 bytes).
    Removing hibernate.o(i.HibernateRTCDisable), (24 bytes).
    Removing hibernate.o(i.HibernateRTCMatchGet), (12 bytes).
    Removing hibernate.o(i.HibernateRTCSSGet), (16 bytes).
    Removing hibernate.o(i.HibernateRTCSSMatchGet), (12 bytes).
    Removing hibernate.o(i.HibernateRTCSSMatchSet), (20 bytes).
    Removing hibernate.o(i.HibernateRTCTrimGet), (12 bytes).
    Removing hibernate.o(i.HibernateRequest), (24 bytes).
    Removing hibernate.o(i.HibernateTamperDisable), (64 bytes).
    Removing hibernate.o(i.HibernateTamperEnable), (64 bytes).
    Removing hibernate.o(i.HibernateTamperEventsClear), (64 bytes).
    Removing hibernate.o(i.HibernateTamperEventsClearNoLock), (32 bytes).
    Removing hibernate.o(i.HibernateTamperEventsConfig), (72 bytes).
    Removing hibernate.o(i.HibernateTamperEventsGet), (88 bytes).
    Removing hibernate.o(i.HibernateTamperExtOscRecover), (64 bytes).
    Removing hibernate.o(i.HibernateTamperExtOscValid), (60 bytes).
    Removing hibernate.o(i.HibernateTamperIODisable), (72 bytes).
    Removing hibernate.o(i.HibernateTamperIOEnable), (88 bytes).
    Removing hibernate.o(i.HibernateTamperLock), (32 bytes).
    Removing hibernate.o(i.HibernateTamperStatusGet), (52 bytes).
    Removing hibernate.o(i.HibernateTamperUnLock), (28 bytes).
    Removing hibernate.o(i.HibernateWakeGet), (56 bytes).
    Removing hibernate.o(i._HibernateCalendarSet), (268 bytes).
    Removing interrupt.o(i.IntDisable), (100 bytes).
    Removing interrupt.o(i.IntIsEnabled), (96 bytes).
    Removing interrupt.o(i.IntMasterDisable), (14 bytes).
    Removing interrupt.o(i.IntMasterEnable), (14 bytes).
    Removing interrupt.o(i.IntPendClear), (68 bytes).
    Removing interrupt.o(i.IntPendSet), (84 bytes).
    Removing interrupt.o(i.IntPriorityGet), (28 bytes).
    Removing interrupt.o(i.IntPriorityGroupingGet), (36 bytes).
    Removing interrupt.o(i.IntPriorityGroupingSet), (28 bytes).
    Removing interrupt.o(i.IntPriorityMaskGet), (4 bytes).
    Removing interrupt.o(i.IntPriorityMaskSet), (4 bytes).
    Removing interrupt.o(i.IntPrioritySet), (40 bytes).
    Removing interrupt.o(i.IntRegister), (52 bytes).
    Removing interrupt.o(i.IntTrigger), (12 bytes).
    Removing interrupt.o(i.IntUnregister), (20 bytes).
    Removing interrupt.o(i._IntDefaultHandler), (2 bytes).
    Removing interrupt.o(vtable), (620 bytes).
    Removing sysctl.o(.emb_text), (6 bytes).
    Removing sysctl.o(i.SysCtlADCSpeedGet), (16 bytes).
    Removing sysctl.o(i.SysCtlADCSpeedSet), (28 bytes).
    Removing sysctl.o(i.SysCtlAltClkConfig), (12 bytes).
    Removing sysctl.o(i.SysCtlClockFreqSet), (712 bytes).
    Removing sysctl.o(i.SysCtlClockOutConfig), (16 bytes).
    Removing sysctl.o(i.SysCtlClockSet), (284 bytes).
    Removing sysctl.o(i.SysCtlDeepSleep), (32 bytes).
    Removing sysctl.o(i.SysCtlDeepSleepClockConfigSet), (168 bytes).
    Removing sysctl.o(i.SysCtlDeepSleepClockSet), (12 bytes).
    Removing sysctl.o(i.SysCtlDeepSleepPowerSet), (12 bytes).
    Removing sysctl.o(i.SysCtlFlashSectorSizeGet), (56 bytes).
    Removing sysctl.o(i.SysCtlFlashSizeGet), (56 bytes).
    Removing sysctl.o(i.SysCtlGPIOAHBDisable), (28 bytes).
    Removing sysctl.o(i.SysCtlGPIOAHBEnable), (24 bytes).
    Removing sysctl.o(i.SysCtlIntClear), (12 bytes).
    Removing sysctl.o(i.SysCtlIntDisable), (16 bytes).
    Removing sysctl.o(i.SysCtlIntEnable), (16 bytes).
    Removing sysctl.o(i.SysCtlIntRegister), (20 bytes).
    Removing sysctl.o(i.SysCtlIntStatus), (16 bytes).
    Removing sysctl.o(i.SysCtlIntUnregister), (18 bytes).
    Removing sysctl.o(i.SysCtlLDODeepSleepGet), (12 bytes).
    Removing sysctl.o(i.SysCtlLDODeepSleepSet), (12 bytes).
    Removing sysctl.o(i.SysCtlLDOSleepGet), (12 bytes).
    Removing sysctl.o(i.SysCtlLDOSleepSet), (12 bytes).
    Removing sysctl.o(i.SysCtlMOSCConfigSet), (12 bytes).
    Removing sysctl.o(i.SysCtlNMIClear), (16 bytes).
    Removing sysctl.o(i.SysCtlNMIStatus), (12 bytes).
    Removing sysctl.o(i.SysCtlPIOSCCalibrate), (76 bytes).
    Removing sysctl.o(i.SysCtlPWMClockGet), (24 bytes).
    Removing sysctl.o(i.SysCtlPWMClockSet), (20 bytes).
    Removing sysctl.o(i.SysCtlPeripheralClockGating), (68 bytes).
    Removing sysctl.o(i.SysCtlPeripheralDeepSleepDisable), (40 bytes).
    Removing sysctl.o(i.SysCtlPeripheralDeepSleepEnable), (40 bytes).
    Removing sysctl.o(i.SysCtlPeripheralDisable), (40 bytes).
    Removing sysctl.o(i.SysCtlPeripheralPowerOff), (40 bytes).
    Removing sysctl.o(i.SysCtlPeripheralPowerOn), (40 bytes).
    Removing sysctl.o(i.SysCtlPeripheralPresent), (44 bytes).
    Removing sysctl.o(i.SysCtlPeripheralReady), (44 bytes).
    Removing sysctl.o(i.SysCtlPeripheralReset), (60 bytes).
    Removing sysctl.o(i.SysCtlPeripheralSleepDisable), (40 bytes).
    Removing sysctl.o(i.SysCtlPeripheralSleepEnable), (40 bytes).
    Removing sysctl.o(i.SysCtlReset), (16 bytes).
    Removing sysctl.o(i.SysCtlResetBehaviorGet), (12 bytes).
    Removing sysctl.o(i.SysCtlResetBehaviorSet), (12 bytes).
    Removing sysctl.o(i.SysCtlResetCauseClear), (16 bytes).
    Removing sysctl.o(i.SysCtlResetCauseGet), (12 bytes).
    Removing sysctl.o(i.SysCtlSRAMSizeGet), (16 bytes).
    Removing sysctl.o(i.SysCtlSleep), (4 bytes).
    Removing sysctl.o(i.SysCtlSleepPowerSet), (12 bytes).
    Removing sysctl.o(i.SysCtlUSBPLLDisable), (16 bytes).
    Removing sysctl.o(i.SysCtlUSBPLLEnable), (16 bytes).
    Removing sysctl.o(i.SysCtlVoltageEventClear), (16 bytes).
    Removing sysctl.o(i.SysCtlVoltageEventConfig), (12 bytes).
    Removing sysctl.o(i.SysCtlVoltageEventStatus), (12 bytes).
    Removing systick.o(i.SysTickDisable), (14 bytes).
    Removing systick.o(i.SysTickIntDisable), (14 bytes).
    Removing systick.o(i.SysTickIntRegister), (24 bytes).
    Removing systick.o(i.SysTickIntUnregister), (18 bytes).
    Removing systick.o(i.SysTickPeriodGet), (10 bytes).
    Removing systick.o(i.SysTickValueGet), (8 bytes).
    Removing timer.o(i.TimerADCEventGet), (4 bytes).
    Removing timer.o(i.TimerADCEventSet), (4 bytes).
    Removing timer.o(i.TimerClockSourceGet), (6 bytes).
    Removing timer.o(i.TimerConfigure), (96 bytes).
    Removing timer.o(i.TimerControlEvent), (18 bytes).
    Removing timer.o(i.TimerControlLevel), (22 bytes).
    Removing timer.o(i.TimerControlStall), (22 bytes).
    Removing timer.o(i.TimerControlTrigger), (76 bytes).
    Removing timer.o(i.TimerControlWaitOnTrigger), (48 bytes).
    Removing timer.o(i.TimerDMAEventGet), (4 bytes).
    Removing timer.o(i.TimerDMAEventSet), (4 bytes).
    Removing timer.o(i.TimerDisable), (16 bytes).
    Removing timer.o(i.TimerEnable), (14 bytes).
    Removing timer.o(i.TimerIntClear), (4 bytes).
    Removing timer.o(i.TimerIntDisable), (10 bytes).
    Removing timer.o(i.TimerIntEnable), (8 bytes).
    Removing timer.o(i.TimerIntRegister), (104 bytes).
    Removing timer.o(i.TimerIntStatus), (10 bytes).
    Removing timer.o(i.TimerIntUnregister), (104 bytes).
    Removing timer.o(i.TimerLoadGet), (10 bytes).
    Removing timer.o(i.TimerLoadGet64), (14 bytes).
    Removing timer.o(i.TimerLoadSet), (18 bytes).
    Removing timer.o(i.TimerLoadSet64), (6 bytes).
    Removing timer.o(i.TimerMatchGet), (10 bytes).
    Removing timer.o(i.TimerMatchGet64), (14 bytes).
    Removing timer.o(i.TimerMatchSet), (18 bytes).
    Removing timer.o(i.TimerMatchSet64), (6 bytes).
    Removing timer.o(i.TimerPrescaleGet), (10 bytes).
    Removing timer.o(i.TimerPrescaleMatchGet), (10 bytes).
    Removing timer.o(i.TimerPrescaleMatchSet), (18 bytes).
    Removing timer.o(i.TimerPrescaleSet), (18 bytes).
    Removing timer.o(i.TimerRTCDisable), (10 bytes).
    Removing timer.o(i.TimerRTCEnable), (10 bytes).
    Removing timer.o(i.TimerSynchronize), (4 bytes).
    Removing timer.o(i.TimerValueGet), (10 bytes).
    Removing timer.o(i.TimerValueGet64), (14 bytes).
    Removing timer.o(.constdata), (160 bytes).
    Removing uart.o(i.UART9BitAddrSend), (38 bytes).
    Removing uart.o(i.UART9BitAddrSet), (10 bytes).
    Removing uart.o(i.UART9BitDisable), (14 bytes).
    Removing uart.o(i.UART9BitEnable), (14 bytes).
    Removing uart.o(i.UARTBreakCtl), (18 bytes).
    Removing uart.o(i.UARTBusy), (8 bytes).
    Removing uart.o(i.UARTCharGet), (12 bytes).
    Removing uart.o(i.UARTCharGetNonBlocking), (16 bytes).
    Removing uart.o(i.UARTCharPutNonBlocking), (16 bytes).
    Removing uart.o(i.UARTClockSourceGet), (6 bytes).
    Removing uart.o(i.UARTClockSourceSet), (6 bytes).
    Removing uart.o(i.UARTConfigGetExpClk), (46 bytes).
    Removing uart.o(i.UARTConfigSetExpClk), (110 bytes).
    Removing uart.o(i.UARTDMADisable), (10 bytes).
    Removing uart.o(i.UARTDMAEnable), (8 bytes).
    Removing uart.o(i.UARTDisable), (30 bytes).
    Removing uart.o(i.UARTDisableSIR), (10 bytes).
    Removing uart.o(i.UARTEnable), (20 bytes).
    Removing uart.o(i.UARTEnableSIR), (18 bytes).
    Removing uart.o(i.UARTFIFODisable), (10 bytes).
    Removing uart.o(i.UARTFIFOLevelGet), (16 bytes).
    Removing uart.o(i.UARTFlowControlGet), (8 bytes).
    Removing uart.o(i.UARTFlowControlSet), (12 bytes).
    Removing uart.o(i.UARTIntDisable), (10 bytes).
    Removing uart.o(i.UARTIntEnable), (8 bytes).
    Removing uart.o(i.UARTIntRegister), (88 bytes).
    Removing uart.o(i.UARTIntStatus), (10 bytes).
    Removing uart.o(i.UARTIntUnregister), (88 bytes).
    Removing uart.o(i.UARTModemControlClear), (14 bytes).
    Removing uart.o(i.UARTModemControlGet), (8 bytes).
    Removing uart.o(i.UARTModemControlSet), (12 bytes).
    Removing uart.o(i.UARTModemStatusGet), (10 bytes).
    Removing uart.o(i.UARTParityModeGet), (8 bytes).
    Removing uart.o(i.UARTParityModeSet), (12 bytes).
    Removing uart.o(i.UARTRxErrorClear), (6 bytes).
    Removing uart.o(i.UARTRxErrorGet), (8 bytes).
    Removing uart.o(i.UARTSmartCardDisable), (10 bytes).
    Removing uart.o(i.UARTSmartCardEnable), (22 bytes).
    Removing uart.o(i.UARTSpaceAvail), (10 bytes).
    Removing uart.o(i.UARTTxIntModeGet), (8 bytes).
    Removing uart.o(i.UARTTxIntModeSet), (12 bytes).
    Removing uart.o(.constdata), (128 bytes).
    Removing context.o(i.GrContextClipRegionSet), (112 bytes).
    Removing context.o(i.GrLibInit), (12 bytes).
    Removing image.o(i.GrTransparentImageDraw), (22 bytes).
    Removing rectangle.o(i.GrRectDraw), (108 bytes).
    Removing rectangle.o(i.GrRectIntersectGet), (140 bytes).
    Removing rectangle.o(i.GrRectOverlapCheck), (56 bytes).
    Removing string.o(i.GrCodepageMapTableSet), (10 bytes).
    Removing string.o(i.GrFontBlockCodepointsGet), (84 bytes).
    Removing string.o(i.GrFontCodepageGet), (32 bytes).
    Removing string.o(i.GrFontHeightGet), (44 bytes).
    Removing string.o(i.GrFontInfoGet), (48 bytes).
    Removing string.o(i.GrFontMaxWidthGet), (44 bytes).
    Removing string.o(i.GrFontNumBlocksGet), (32 bytes).
    Removing string.o(i.GrStringCodepageSet), (6 bytes).
    Removing string.o(i.GrStringGet), (600 bytes).
    Removing string.o(i.GrStringLanguageSet), (48 bytes).
    Removing string.o(i.GrStringNextCharGet), (52 bytes).
    Removing string.o(i.GrStringTableSet), (36 bytes).
    Removing string.o(.data), (20 bytes).
    Removing cpu.o(.emb_text), (38 bytes).
    Removing charmap.o(i.GrMapISO8859_10_Unicode), (32 bytes).
    Removing charmap.o(i.GrMapISO8859_11_Unicode), (16 bytes).
    Removing charmap.o(i.GrMapISO8859_13_Unicode), (32 bytes).
    Removing charmap.o(i.GrMapISO8859_14_Unicode), (96 bytes).
    Removing charmap.o(i.GrMapISO8859_15_Unicode), (88 bytes).
    Removing charmap.o(i.GrMapISO8859_16_Unicode), (32 bytes).
    Removing charmap.o(i.GrMapISO8859_2_Unicode), (32 bytes).
    Removing charmap.o(i.GrMapISO8859_3_Unicode), (32 bytes).
    Removing charmap.o(i.GrMapISO8859_4_Unicode), (32 bytes).
    Removing charmap.o(i.GrMapISO8859_5_Unicode), (16 bytes).
    Removing charmap.o(i.GrMapISO8859_6_Unicode), (22 bytes).
    Removing charmap.o(i.GrMapISO8859_7_Unicode), (40 bytes).
    Removing charmap.o(i.GrMapISO8859_8_Unicode), (38 bytes).
    Removing charmap.o(i.GrMapISO8859_9_Unicode), (68 bytes).
    Removing charmap.o(i.GrMapUTF16BE_Unicode), (6 bytes).
    Removing charmap.o(i.GrMapUTF16LE_Unicode), (6 bytes).
    Removing charmap.o(i.GrMapUTF16_Unicode), (120 bytes).
    Removing charmap.o(i.GrMapUTF8_Unicode), (144 bytes).
    Removing charmap.o(i.GrMapUnicode_Unicode), (22 bytes).
    Removing charmap.o(i.GrMapWIN1250_Unicode), (32 bytes).
    Removing charmap.o(i.GrMapWIN1251_Unicode), (44 bytes).
    Removing charmap.o(i.GrMapWIN1252_Unicode), (36 bytes).
    Removing charmap.o(i.GrMapWIN1253_Unicode), (44 bytes).
    Removing charmap.o(i.GrMapWIN1254_Unicode), (96 bytes).
    Removing charmap.o(.constdata), (1900 bytes).
    Removing line.o(i.GrLineDraw), (638 bytes).
    Removing line.o(i.GrLineDrawH), (76 bytes).
    Removing line.o(i.GrLineDrawV), (76 bytes).
    Removing dfltul.o(.text), (24 bytes).
    Removing dneg.o(.text), (6 bytes).
    Removing dscalb.o(.text), (46 bytes).
    Removing dsqrt.o(.text), (162 bytes).

326 unused section(s) (total 17760 bytes) removed from the image.

==============================================================================

Image Symbol Table

    Local Symbols

    Symbol Name                              Value     Ov Type        Size  Object(Section)

    RESET                                    0x00000000   Section      648  startup_rvmdk.o(RESET)
    ../clib/../cmprslib/zerorunl2.c          0x00000000   Number         0  __dczerorl2.o ABSOLUTE
    ../clib/microlib/ctype/ctype.c           0x00000000   Number         0  isupper_o.o ABSOLUTE
    ../clib/microlib/ctype/ctype.c           0x00000000   Number         0  isdigit_o.o ABSOLUTE
    ../clib/microlib/ctype/ctype.c           0x00000000   Number         0  isgraph_o.o ABSOLUTE
    ../clib/microlib/ctype/ctype.c           0x00000000   Number         0  isblank_o.o ABSOLUTE
    ../clib/microlib/ctype/ctype.c           0x00000000   Number         0  islower_o.o ABSOLUTE
    ../clib/microlib/ctype/ctype.c           0x00000000   Number         0  isprint_o.o ABSOLUTE
    ../clib/microlib/ctype/ctype.c           0x00000000   Number         0  ispunct_o.o ABSOLUTE
    ../clib/microlib/ctype/ctype.c           0x00000000   Number         0  ctype_o.o ABSOLUTE
    ../clib/microlib/ctype/ctype.c           0x00000000   Number         0  isxdigit_o.o ABSOLUTE
    ../clib/microlib/ctype/ctype.c           0x00000000   Number         0  isspace_o.o ABSOLUTE
    ../clib/microlib/ctype/ctype.c           0x00000000   Number         0  isalnum_o.o ABSOLUTE
    ../clib/microlib/ctype/ctype.c           0x00000000   Number         0  isalpha_o.o ABSOLUTE
    ../clib/microlib/ctype/ctype.c           0x00000000   Number         0  iscntrl_o.o ABSOLUTE
    ../clib/microlib/division.c              0x00000000   Number         0  uldiv.o ABSOLUTE
    ../clib/microlib/division.c              0x00000000   Number         0  uidiv.o ABSOLUTE
    ../clib/microlib/errno.c                 0x00000000   Number         0  errno.o ABSOLUTE
    ../clib/microlib/init/entry.s            0x00000000   Number         0  entry7a.o ABSOLUTE
    ../clib/microlib/init/entry.s            0x00000000   Number         0  entry5.o ABSOLUTE
    ../clib/microlib/init/entry.s            0x00000000   Number         0  entry2.o ABSOLUTE
    ../clib/microlib/init/entry.s            0x00000000   Number         0  entry8b.o ABSOLUTE
    ../clib/microlib/init/entry.s            0x00000000   Number         0  entry7b.o ABSOLUTE
    ../clib/microlib/init/entry.s            0x00000000   Number         0  entry10b.o ABSOLUTE
    ../clib/microlib/init/entry.s            0x00000000   Number         0  entry8a.o ABSOLUTE
    ../clib/microlib/init/entry.s            0x00000000   Number         0  entry.o ABSOLUTE
    ../clib/microlib/init/entry.s            0x00000000   Number         0  entry11b.o ABSOLUTE
    ../clib/microlib/init/entry.s            0x00000000   Number         0  entry11a.o ABSOLUTE
    ../clib/microlib/init/entry.s            0x00000000   Number         0  entry10a.o ABSOLUTE
    ../clib/microlib/init/entry.s            0x00000000   Number         0  entry9b.o ABSOLUTE
    ../clib/microlib/init/entry.s            0x00000000   Number         0  entry9a.o ABSOLUTE
    ../clib/microlib/longlong.c              0x00000000   Number         0  llshl.o ABSOLUTE
    ../clib/microlib/longlong.c              0x00000000   Number         0  llsshr.o ABSOLUTE
    ../clib/microlib/longlong.c              0x00000000   Number         0  llushr.o ABSOLUTE
    ../clib/microlib/printf/printf.c         0x00000000   Number         0  printf3.o ABSOLUTE
    ../clib/microlib/printf/printf.c         0x00000000   Number         0  printf4.o ABSOLUTE
    ../clib/microlib/printf/printf.c         0x00000000   Number         0  printf6.o ABSOLUTE
    ../clib/microlib/printf/printf.c         0x00000000   Number         0  printf5.o ABSOLUTE
    ../clib/microlib/printf/printf.c         0x00000000   Number         0  printfb.o ABSOLUTE
    ../clib/microlib/printf/printf.c         0x00000000   Number         0  printf0.o ABSOLUTE
    ../clib/microlib/printf/printf.c         0x00000000   Number         0  printf1.o ABSOLUTE
    ../clib/microlib/printf/printf.c         0x00000000   Number         0  printf2.o ABSOLUTE
    ../clib/microlib/printf/printf.c         0x00000000   Number         0  printfa.o ABSOLUTE
    ../clib/microlib/printf/printf.c         0x00000000   Number         0  printf8.o ABSOLUTE
    ../clib/microlib/printf/printf.c         0x00000000   Number         0  printf7.o ABSOLUTE
    ../clib/microlib/printf/stubs.s          0x00000000   Number         0  stubs.o ABSOLUTE
    ../clib/microlib/stdio/fputc.c           0x00000000   Number         0  fputc.o ABSOLUTE
    ../clib/microlib/stdio/semi.s            0x00000000   Number         0  semi.o ABSOLUTE
    ../clib/microlib/stdio/streams.c         0x00000000   Number         0  stdout.o ABSOLUTE
    ../clib/microlib/string/memcpy.c         0x00000000   Number         0  memcpyb.o ABSOLUTE
    ../clib/microlib/string/memcpy.c         0x00000000   Number         0  memcpya.o ABSOLUTE
    ../clib/microlib/string/memset.c         0x00000000   Number         0  memseta.o ABSOLUTE
    ../clib/microlib/string/strcat.c         0x00000000   Number         0  strcat.o ABSOLUTE
    ../clib/microlib/string/strcmp.c         0x00000000   Number         0  strcmp.o ABSOLUTE
    ../clib/microlib/string/strcpy.c         0x00000000   Number         0  strcpy.o ABSOLUTE
    ../clib/microlib/string/strlen.c         0x00000000   Number         0  strlen.o ABSOLUTE
    ../clib/microlib/string/strncpy.c        0x00000000   Number         0  strncpy.o ABSOLUTE
    ../clib/microlib/stubs.s                 0x00000000   Number         0  iusesemip.o ABSOLUTE
    ../clib/microlib/stubs.s                 0x00000000   Number         0  iusefp.o ABSOLUTE
    ../clib/scanf.c                          0x00000000   Number         0  _chval.o ABSOLUTE
    ../clib/scanf.c                          0x00000000   Number         0  strtoull.o ABSOLUTE
    ../clib/scanf.c                          0x00000000   Number         0  atoi.o ABSOLUTE
    ../clib/scanf.c                          0x00000000   Number         0  strtol.o ABSOLUTE
    ../clib/scanf.c                          0x00000000   Number         0  __strtoull.o ABSOLUTE
    ../clib/scanf.c                          0x00000000   Number         0  _strtoul.o ABSOLUTE
    ../clib/scanf.c                          0x00000000   Number         0  _strtoull.o ABSOLUTE
    ../fplib/microlib/d2f.c                  0x00000000   Number         0  d2f.o ABSOLUTE
    ../fplib/microlib/f2d.c                  0x00000000   Number         0  f2d.o ABSOLUTE
    ../fplib/microlib/fpadd.c                0x00000000   Number         0  dadd.o ABSOLUTE
    ../fplib/microlib/fpdiv.c                0x00000000   Number         0  ddiv.o ABSOLUTE
    ../fplib/microlib/fpepilogue.c           0x00000000   Number         0  depilogue.o ABSOLUTE
    ../fplib/microlib/fpepilogue.c           0x00000000   Number         0  fepilogue.o ABSOLUTE
    ../fplib/microlib/fpfix.c                0x00000000   Number         0  dfixi.o ABSOLUTE
    ../fplib/microlib/fpfix.c                0x00000000   Number         0  dfixul.o ABSOLUTE
    ../fplib/microlib/fpflt.c                0x00000000   Number         0  dflti.o ABSOLUTE
    ../fplib/microlib/fpflt.c                0x00000000   Number         0  dfltul.o ABSOLUTE
    ../fplib/microlib/fpmul.c                0x00000000   Number         0  dmul.o ABSOLUTE
    ../fplib/microlib/fpneg.c                0x00000000   Number         0  dneg.o ABSOLUTE
    ../fplib/microlib/fpscalb.c              0x00000000   Number         0  dscalb.o ABSOLUTE
    ../fplib/microlib/fpsqrt.c               0x00000000   Number         0  dsqrt.o ABSOLUTE
    ../mathlib/ceil.c                        0x00000000   Number         0  ceil.o ABSOLUTE
    ../mathlib/dunder.c                      0x00000000   Number         0  dunder.o ABSOLUTE
    ../mathlib/fabs.c                        0x00000000   Number         0  fabs.o ABSOLUTE
    ../mathlib/floor.c                       0x00000000   Number         0  floor.o ABSOLUTE
    ../mathlib/fpclassify.c                  0x00000000   Number         0  fpclassify.o ABSOLUTE
    ../mathlib/poly.c                        0x00000000   Number         0  poly.o ABSOLUTE
    ../mathlib/pow.c                         0x00000000   Number         0  pow_x.o ABSOLUTE
    ../mathlib/pow.c                         0x00000000   Number         0  pow.o ABSOLUTE
    ../mathlib/qnan.c                        0x00000000   Number         0  qnan.o ABSOLUTE
    ../mathlib/sqrt.c                        0x00000000   Number         0  sqrt.o ABSOLUTE
    ../mathlib/sqrt.c                        0x00000000   Number         0  sqrt_x.o ABSOLUTE
    ..\..\..\..\third_party\fatfs\port\mmc-dk-tm4c123g.c 0x00000000   Number         0  mmc-dk-tm4c123g.o ABSOLUTE
    ..\..\..\..\third_party\fatfs\src\ff.c   0x00000000   Number         0  ff.o ABSOLUTE
    ..\..\..\..\third_party\fatfs\src\option\cc932.c 0x00000000   Number         0  cc932.o ABSOLUTE
    ..\..\..\..\utils\cmdline.c              0x00000000   Number         0  cmdline.o ABSOLUTE
    ..\..\..\..\utils\uartstdio.c            0x00000000   Number         0  uartstdio.o ABSOLUTE
    ..\..\..\..\utils\ustdlib.c              0x00000000   Number         0  ustdlib.o ABSOLUTE
    ..\drivers\buttons.c                     0x00000000   Number         0  buttons.o ABSOLUTE
    ..\drivers\cfal96x64x16.c                0x00000000   Number         0  cfal96x64x16.o ABSOLUTE
    GPS_FONA.c                               0x00000000   Number         0  gps_fona.o ABSOLUTE
    GSM_FONA808.c                            0x00000000   Number         0  gsm_fona808.o ABSOLUTE
    SysTick.c                                0x00000000   Number         0  systick.o ABSOLUTE
    cdcmple.s                                0x00000000   Number         0  cdcmple.o ABSOLUTE
    cdrcmple.s                               0x00000000   Number         0  cdrcmple.o ABSOLUTE
    charmap.c                                0x00000000   Number         0  charmap.o ABSOLUTE
    context.c                                0x00000000   Number         0  context.o ABSOLUTE
    cpu.c                                    0x00000000   Number         0  cpu.o ABSOLUTE
    cpu.c                                    0x00000000   Number         0  cpu.o ABSOLUTE
    dc.s                                     0x00000000   Number         0  dc.o ABSOLUTE
    fonts\fontfixed6x8.c                     0x00000000   Number         0  fontfixed6x8.o ABSOLUTE
    gpio.c                                   0x00000000   Number         0  gpio.o ABSOLUTE
    handlers.s                               0x00000000   Number         0  handlers.o ABSOLUTE
    hibernate.c                              0x00000000   Number         0  hibernate.o ABSOLUTE
    image.c                                  0x00000000   Number         0  image.o ABSOLUTE
    init.s                                   0x00000000   Number         0  init.o ABSOLUTE
    interrupt.c                              0x00000000   Number         0  interrupt.o ABSOLUTE
    lcd.c                                    0x00000000   Number         0  lcd.o ABSOLUTE
    line.c                                   0x00000000   Number         0  line.o ABSOLUTE
    main.c                                   0x00000000   Number         0  main.o ABSOLUTE
    rectangle.c                              0x00000000   Number         0  rectangle.o ABSOLUTE
    scheduler.c                              0x00000000   Number         0  scheduler.o ABSOLUTE
    sd_card.c                                0x00000000   Number         0  sd_card.o ABSOLUTE
    startup_rvmdk.S                          0x00000000   Number         0  startup_rvmdk.o ABSOLUTE
    strfunc.c                                0x00000000   Number         0  strfunc.o ABSOLUTE
    string.c                                 0x00000000   Number         0  string.o ABSOLUTE
    sysctl.c                                 0x00000000   Number         0  sysctl.o ABSOLUTE
    sysctl.c                                 0x00000000   Number         0  sysctl.o ABSOLUTE
    systick.c                                0x00000000   Number         0  systick.o ABSOLUTE
    timer.c                                  0x00000000   Number         0  timer.o ABSOLUTE
    uart.c                                   0x00000000   Number         0  uart.o ABSOLUTE
    uartConfiguration.c                      0x00000000   Number         0  uartconfiguration.o ABSOLUTE
    $v0                                      0x0000026c   Number         0  startup_rvmdk.o(RESET)
    NmiSR                                    0x00000281   Thumb Code     0  startup_rvmdk.o(RESET)
    FaultISR                                 0x00000283   Thumb Code     0  startup_rvmdk.o(RESET)
    IntDefaultHandler                        0x00000285   Thumb Code     0  startup_rvmdk.o(RESET)
    .ARM.Collect$$$$00000000                 0x00000288   Section        0  entry.o(.ARM.Collect$$$$00000000)
    .ARM.Collect$$$$00000001                 0x00000288   Section        4  entry2.o(.ARM.Collect$$$$00000001)
    .ARM.Collect$$$$00000004                 0x0000028c   Section        4  entry5.o(.ARM.Collect$$$$00000004)
    .ARM.Collect$$$$00000008                 0x00000290   Section        0  entry7b.o(.ARM.Collect$$$$00000008)
    .ARM.Collect$$$$0000000A                 0x00000290   Section        0  entry8b.o(.ARM.Collect$$$$0000000A)
    .ARM.Collect$$$$0000000B                 0x00000290   Section        8  entry9a.o(.ARM.Collect$$$$0000000B)
    .ARM.Collect$$$$0000000D                 0x00000298   Section        0  entry10a.o(.ARM.Collect$$$$0000000D)
    .ARM.Collect$$$$0000000F                 0x00000298   Section        0  entry11a.o(.ARM.Collect$$$$0000000F)
    .ARM.Collect$$$$00002712                 0x00000298   Section        4  entry2.o(.ARM.Collect$$$$00002712)
    __lit__00000000                          0x00000298   Data           4  entry2.o(.ARM.Collect$$$$00002712)
    .text                                    0x0000029c   Section        0  uldiv.o(.text)
    .text                                    0x000002fe   Section        0  memcpya.o(.text)
    .text                                    0x00000322   Section        0  memseta.o(.text)
    .text                                    0x00000346   Section        0  strcat.o(.text)
    .text                                    0x0000035e   Section        0  strncpy.o(.text)
    .text                                    0x00000376   Section        0  strlen.o(.text)
    .text                                    0x00000384   Section        0  strcmp.o(.text)
    .text                                    0x000003a0   Section        0  strcpy.o(.text)
    .text                                    0x000003b2   Section        0  strtoull.o(.text)
    .text                                    0x000003b6   Section        0  atoi.o(.text)
    .text                                    0x000003d0   Section        0  dadd.o(.text)
    .text                                    0x0000051e   Section        0  dmul.o(.text)
    .text                                    0x00000602   Section        0  ddiv.o(.text)
    .text                                    0x000006e0   Section        0  dflti.o(.text)
    .text                                    0x00000702   Section        0  dfixi.o(.text)
    .text                                    0x00000740   Section        0  dfixul.o(.text)
    .text                                    0x00000770   Section        0  f2d.o(.text)
    .text                                    0x00000798   Section       40  cdcmple.o(.text)
    .text                                    0x000007c0   Section       40  cdrcmple.o(.text)
    .text                                    0x000007e8   Section        0  d2f.o(.text)
    .text                                    0x00000820   Section        0  uidiv.o(.text)
    .text                                    0x0000084c   Section        0  llshl.o(.text)
    .text                                    0x0000086a   Section        0  llushr.o(.text)
    .text                                    0x0000088a   Section        0  llsshr.o(.text)
    .text                                    0x000008ae   Section        0  strtol.o(.text)
    .text                                    0x0000091e   Section        0  __strtoull.o(.text)
    .text                                    0x0000099a   Section        0  fepilogue.o(.text)
    .text                                    0x0000099a   Section        0  iusefp.o(.text)
    .text                                    0x00000a06   Section        0  depilogue.o(.text)
    .text                                    0x00000ac4   Section       36  init.o(.text)
    .text                                    0x00000ae8   Section        0  ctype_o.o(.text)
    .text                                    0x00000af0   Section        0  _strtoul.o(.text)
    .text                                    0x00000b8e   Section        0  _strtoull.o(.text)
    .text                                    0x00000c4e   Section        0  _chval.o(.text)
    .text                                    0x00000c6a   Section        0  __dczerorl2.o(.text)
    i.ButtonsInit                            0x00000cc8   Section        0  buttons.o(i.ButtonsInit)
    i.ButtonsPoll                            0x00000d00   Section        0  buttons.o(i.ButtonsPoll)
    i.CFAL96x64x16ColorTranslate             0x00000da4   Section        0  cfal96x64x16.o(i.CFAL96x64x16ColorTranslate)
    CFAL96x64x16ColorTranslate               0x00000da5   Thumb Code    24  cfal96x64x16.o(i.CFAL96x64x16ColorTranslate)
    i.CFAL96x64x16Flush                      0x00000dbc   Section        0  cfal96x64x16.o(i.CFAL96x64x16Flush)
    CFAL96x64x16Flush                        0x00000dbd   Thumb Code     2  cfal96x64x16.o(i.CFAL96x64x16Flush)
    i.CFAL96x64x16Init                       0x00000dc0   Section        0  cfal96x64x16.o(i.CFAL96x64x16Init)
    i.CFAL96x64x16LineDrawH                  0x00000f74   Section        0  cfal96x64x16.o(i.CFAL96x64x16LineDrawH)
    CFAL96x64x16LineDrawH                    0x00000f75   Thumb Code   142  cfal96x64x16.o(i.CFAL96x64x16LineDrawH)
    i.CFAL96x64x16LineDrawV                  0x00001002   Section        0  cfal96x64x16.o(i.CFAL96x64x16LineDrawV)
    CFAL96x64x16LineDrawV                    0x00001003   Thumb Code   174  cfal96x64x16.o(i.CFAL96x64x16LineDrawV)
    i.CFAL96x64x16PixelDraw                  0x000010b0   Section        0  cfal96x64x16.o(i.CFAL96x64x16PixelDraw)
    CFAL96x64x16PixelDraw                    0x000010b1   Thumb Code    66  cfal96x64x16.o(i.CFAL96x64x16PixelDraw)
    i.CFAL96x64x16PixelDrawMultiple          0x000010f2   Section        0  cfal96x64x16.o(i.CFAL96x64x16PixelDrawMultiple)
    CFAL96x64x16PixelDrawMultiple            0x000010f3   Thumb Code   336  cfal96x64x16.o(i.CFAL96x64x16PixelDrawMultiple)
    i.CFAL96x64x16RectFill                   0x00001242   Section        0  cfal96x64x16.o(i.CFAL96x64x16RectFill)
    CFAL96x64x16RectFill                     0x00001243   Thumb Code    44  cfal96x64x16.o(i.CFAL96x64x16RectFill)
    i.CFAL96x64x16WriteCommand               0x00001270   Section        0  cfal96x64x16.o(i.CFAL96x64x16WriteCommand)
    CFAL96x64x16WriteCommand                 0x00001271   Thumb Code    68  cfal96x64x16.o(i.CFAL96x64x16WriteCommand)
    i.CFAL96x64x16WriteData                  0x000012bc   Section        0  cfal96x64x16.o(i.CFAL96x64x16WriteData)
    CFAL96x64x16WriteData                    0x000012bd   Thumb Code    68  cfal96x64x16.o(i.CFAL96x64x16WriteData)
    i.CmdLineProcess                         0x00001308   Section        0  cmdline.o(i.CmdLineProcess)
    i.Cmd_cat                                0x00001384   Section        0  sd_card.o(i.Cmd_cat)
    i.Cmd_cd                                 0x00001450   Section        0  sd_card.o(i.Cmd_cd)
    i.Cmd_help                               0x00001558   Section        0  sd_card.o(i.Cmd_help)
    i.Cmd_ls                                 0x000015c0   Section        0  sd_card.o(i.Cmd_ls)
    i.Cmd_pwd                                0x00001790   Section        0  sd_card.o(i.Cmd_pwd)
    i.Cmd_return                             0x000017ac   Section        0  sd_card.o(i.Cmd_return)
    i.DESELECT                               0x000017bc   Section        0  mmc-dk-tm4c123g.o(i.DESELECT)
    DESELECT                                 0x000017bd   Thumb Code    22  mmc-dk-tm4c123g.o(i.DESELECT)
    i.FatFsTickTimer                         0x000017d2   Section        0  sd_card.o(i.FatFsTickTimer)
    i.GPIODirModeSet                         0x000017dc   Section        0  gpio.o(i.GPIODirModeSet)
    i.GPIOIntClear                           0x00001804   Section        0  gpio.o(i.GPIOIntClear)
    i.GPIOIntEnable                          0x0000180a   Section        0  gpio.o(i.GPIOIntEnable)
    i.GPIOIntTypeSet                         0x00001818   Section        0  gpio.o(i.GPIOIntTypeSet)
    i.GPIOPadConfigSet                       0x00001868   Section        0  gpio.o(i.GPIOPadConfigSet)
    i.GPIOPinRead                            0x000019a6   Section        0  gpio.o(i.GPIOPinRead)
    i.GPIOPinTypeGPIOInput                   0x000019ac   Section        0  gpio.o(i.GPIOPinTypeGPIOInput)
    i.GPSFix                                 0x000019c8   Section        0  gps_fona.o(i.GPSFix)
    i.GPSGetData                             0x00001aa0   Section        0  gps_fona.o(i.GPSGetData)
    i.GPSParseLat                            0x00001b20   Section        0  gps_fona.o(i.GPSParseLat)
    i.GPSParseLong                           0x00001bd4   Section        0  gps_fona.o(i.GPSParseLong)
    i.GPSParseSpeed                          0x00001c88   Section        0  gps_fona.o(i.GPSParseSpeed)
    i.GPSPower                               0x00001cec   Section        0  gps_fona.o(i.GPSPower)
    i.GPSPowerOneTry                         0x00001da8   Section        0  gps_fona.o(i.GPSPowerOneTry)
    i.GPSSendInf                             0x00001e68   Section        0  gps_fona.o(i.GPSSendInf)
    i.GPSWork                                0x00001f3c   Section        0  main.o(i.GPSWork)
    i.GSMFullFunc                            0x00001ffc   Section        0  gsm_fona808.o(i.GSMFullFunc)
    i.GSMMinFunc                             0x00002094   Section        0  gsm_fona808.o(i.GSMMinFunc)
    i.GSMNetworkReg                          0x00002130   Section        0  gsm_fona808.o(i.GSMNetworkReg)
    i.GSMSignalQlty                          0x000021c8   Section        0  gsm_fona808.o(i.GSMSignalQlty)
    i.GSMTimerDisable                        0x00002254   Section        0  gsm_fona808.o(i.GSMTimerDisable)
    i.GSMTimerEnable                         0x0000226c   Section        0  gsm_fona808.o(i.GSMTimerEnable)
    i.GSMWork                                0x000022ac   Section        0  main.o(i.GSMWork)
    i.GrContextFontSet                       0x00002418   Section        0  string.o(i.GrContextFontSet)
    i.GrContextInit                          0x00002420   Section        0  context.o(i.GrContextInit)
    i.GrDefaultStringRenderer                0x00002484   Section        0  string.o(i.GrDefaultStringRenderer)
    i.GrFontBaselineGet                      0x0000259c   Section        0  string.o(i.GrFontBaselineGet)
    i.GrFontGlyphDataGet                     0x000025c8   Section        0  string.o(i.GrFontGlyphDataGet)
    i.GrFontGlyphRender                      0x0000266e   Section        0  string.o(i.GrFontGlyphRender)
    i.GrImageDraw                            0x000028f4   Section        0  image.o(i.GrImageDraw)
    i.GrMapISO8859_1_Unicode                 0x0000290c   Section        0  charmap.o(i.GrMapISO8859_1_Unicode)
    i.GrRectFill                             0x00002914   Section        0  rectangle.o(i.GrRectFill)
    i.GrStringDraw                           0x000029c8   Section        0  string.o(i.GrStringDraw)
    i.GrStringWidthGet                       0x000029e8   Section        0  string.o(i.GrStringWidthGet)
    i.HibernateClockConfig                   0x00002aa8   Section        0  hibernate.o(i.HibernateClockConfig)
    i.HibernateDataSet                       0x00002af8   Section        0  hibernate.o(i.HibernateDataSet)
    i.HibernateEnableExpClk                  0x00002b28   Section        0  hibernate.o(i.HibernateEnableExpClk)
    i.HibernateIntClear                      0x00002b40   Section        0  hibernate.o(i.HibernateIntClear)
    i.HibernateIntStatus                     0x00002b58   Section        0  hibernate.o(i.HibernateIntStatus)
    i.HibernateIsActive                      0x00002b68   Section        0  hibernate.o(i.HibernateIsActive)
    i.HibernateRTCEnable                     0x00002b78   Section        0  hibernate.o(i.HibernateRTCEnable)
    i.HibernateRTCGet                        0x00002b90   Section        0  hibernate.o(i.HibernateRTCGet)
    i.HibernateRTCMatchSet                   0x00002b9c   Section        0  hibernate.o(i.HibernateRTCMatchSet)
    i.HibernateRTCSet                        0x00002bb0   Section        0  hibernate.o(i.HibernateRTCSet)
    i.HibernateRTCTrimSet                    0x00002be4   Section        0  hibernate.o(i.HibernateRTCTrimSet)
    i.HibernateWakeSet                       0x00002bf8   Section        0  hibernate.o(i.HibernateWakeSet)
    i.Init_GSM                               0x00002c64   Section        0  gsm_fona808.o(i.Init_GSM)
    i.Init_PortH                             0x00002de0   Section        0  gsm_fona808.o(i.Init_PortH)
    i.IntEnable                              0x00002e20   Section        0  interrupt.o(i.IntEnable)
    i.InternalImageDraw                      0x00002e84   Section        0  image.o(i.InternalImageDraw)
    InternalImageDraw                        0x00002e85   Thumb Code   872  image.o(i.InternalImageDraw)
    i.PixelTransparentDraw                   0x000031f0   Section        0  image.o(i.PixelTransparentDraw)
    PixelTransparentDraw                     0x000031f1   Thumb Code   646  image.o(i.PixelTransparentDraw)
    i.PortHIntHandler                        0x00003478   Section        0  gsm_fona808.o(i.PortHIntHandler)
    i.SELECT                                 0x000034b4   Section        0  mmc-dk-tm4c123g.o(i.SELECT)
    SELECT                                   0x000034b5   Thumb Code    22  mmc-dk-tm4c123g.o(i.SELECT)
    i.SchedulerElapsedTicksCalc              0x000034ca   Section        0  scheduler.o(i.SchedulerElapsedTicksCalc)
    i.SchedulerElapsedTicksGet               0x000034e0   Section        0  scheduler.o(i.SchedulerElapsedTicksGet)
    i.SchedulerInit                          0x000034f4   Section        0  scheduler.o(i.SchedulerInit)
    i.SchedulerRun                           0x00003510   Section        0  scheduler.o(i.SchedulerRun)
    i.SchedulerSysTickIntHandler             0x00003554   Section        0  scheduler.o(i.SchedulerSysTickIntHandler)
    i.SimCardDetect                          0x0000356c   Section        0  gsm_fona808.o(i.SimCardDetect)
    i.StringFromFResult                      0x0000362c   Section        0  sd_card.o(i.StringFromFResult)
    i.SysCtlClockGet                         0x00003668   Section        0  sysctl.o(i.SysCtlClockGet)
    i.SysCtlPeripheralEnable                 0x00003774   Section        0  sysctl.o(i.SysCtlPeripheralEnable)
    i.SysTickEnable                          0x0000379c   Section        0  systick.o(i.SysTickEnable)
    i.SysTickIntEnable                       0x000037aa   Section        0  systick.o(i.SysTickIntEnable)
    i.SysTickPeriodSet                       0x000037b8   Section        0  systick.o(i.SysTickPeriodSet)
    i.SysTick_Init                           0x000037c2   Section        0  systick.o(i.SysTick_Init)
    i.SysTick_Wait                           0x000037da   Section        0  systick.o(i.SysTick_Wait)
    i.SysTick_delay_ms                       0x000037fa   Section        0  systick.o(i.SysTick_delay_ms)
    i.SysTick_delay_us                       0x00003812   Section        0  systick.o(i.SysTick_delay_us)
    i.TIMER0A_Handler                        0x00003828   Section        0  gsm_fona808.o(i.TIMER0A_Handler)
    i.TimerClockSourceSet                    0x00003874   Section        0  timer.o(i.TimerClockSourceSet)
    i.UART0IntHandler                        0x0000387c   Section        0  uartconfiguration.o(i.UART0IntHandler)
    i.UART1IntHandler                        0x00003924   Section        0  uartconfiguration.o(i.UART1IntHandler)
    i.UARTCharPut                            0x000039a8   Section        0  uart.o(i.UARTCharPut)
    i.UARTCharsAvail                         0x000039b4   Section        0  uart.o(i.UARTCharsAvail)
    i.UARTFIFOEnable                         0x000039be   Section        0  uart.o(i.UARTFIFOEnable)
    i.UARTFIFOLevelSet                       0x000039c8   Section        0  uart.o(i.UARTFIFOLevelSet)
    i.UARTIntClear                           0x000039ce   Section        0  uart.o(i.UARTIntClear)
    i.UARTSend                               0x000039d2   Section        0  uartconfiguration.o(i.UARTSend)
    i.UARTStdioConfig                        0x000039fc   Section        0  uartstdio.o(i.UARTStdioConfig)
    i.UARTgets                               0x00003a68   Section        0  uartstdio.o(i.UARTgets)
    i.UARTprintf                             0x00003b04   Section        0  uartstdio.o(i.UARTprintf)
    i.UARTvprintf                            0x00003b20   Section        0  uartstdio.o(i.UARTvprintf)
    i.UARTwrite                              0x00003d70   Section        0  uartstdio.o(i.UARTwrite)
    i.URCfound                               0x00003db0   Section        0  gsm_fona808.o(i.URCfound)
    i.UpdateContextCharMapping               0x00003ddc   Section        0  string.o(i.UpdateContextCharMapping)
    UpdateContextCharMapping                 0x00003ddd   Thumb Code   108  string.o(i.UpdateContextCharMapping)
    i.WTimer0IntHandler                      0x00003e48   Section        0  main.o(i.WTimer0IntHandler)
    i.WatchdogIntHandler                     0x00003ecc   Section        0  main.o(i.WatchdogIntHandler)
    i.__0sprintf                             0x00003ee4   Section        0  printfa.o(i.__0sprintf)
    i.__aeabi_errno_addr                     0x00003f0c   Section        0  errno.o(i.__aeabi_errno_addr)
    i.__hardfp_ceil                          0x00003f18   Section        0  ceil.o(i.__hardfp_ceil)
    i.__hardfp_floor                         0x00004030   Section        0  floor.o(i.__hardfp_floor)
    i.__scatterload_copy                     0x00004148   Section       14  handlers.o(i.__scatterload_copy)
    i.__scatterload_null                     0x00004156   Section        2  handlers.o(i.__scatterload_null)
    i.__scatterload_zeroinit                 0x00004158   Section       14  handlers.o(i.__scatterload_zeroinit)
    i._fp_digits                             0x00004168   Section        0  printfa.o(i._fp_digits)
    _fp_digits                               0x00004169   Thumb Code   326  printfa.o(i._fp_digits)
    i._printf_core                           0x000042c4   Section        0  printfa.o(i._printf_core)
    _printf_core                             0x000042c5   Thumb Code  1762  printfa.o(i._printf_core)
    i._printf_post_padding                   0x000049b4   Section        0  printfa.o(i._printf_post_padding)
    _printf_post_padding                     0x000049b5   Thumb Code    38  printfa.o(i._printf_post_padding)
    i._printf_pre_padding                    0x000049da   Section        0  printfa.o(i._printf_pre_padding)
    _printf_pre_padding                      0x000049db   Thumb Code    48  printfa.o(i._printf_pre_padding)
    i._sputc                                 0x00004a0a   Section        0  printfa.o(i._sputc)
    _sputc                                   0x00004a0b   Thumb Code    10  printfa.o(i._sputc)
    i.buttonHandler                          0x00004a14   Section        0  main.o(i.buttonHandler)
    i.check_fs                               0x00004ab8   Section        0  ff.o(i.check_fs)
    check_fs                                 0x00004ab9   Thumb Code   138  ff.o(i.check_fs)
    i.chk_chr                                0x00004b48   Section        0  ff.o(i.chk_chr)
    chk_chr                                  0x00004b49   Thumb Code    20  ff.o(i.chk_chr)
    i.chk_mounted                            0x00004b5c   Section        0  ff.o(i.chk_mounted)
    chk_mounted                              0x00004b5d   Thumb Code   908  ff.o(i.chk_mounted)
    i.chk_power                              0x00004ef8   Section        0  mmc-dk-tm4c123g.o(i.chk_power)
    chk_power                                0x00004ef9   Thumb Code     6  mmc-dk-tm4c123g.o(i.chk_power)
    i.closeFiles                             0x00004f04   Section        0  sd_card.o(i.closeFiles)
    i.clust2sect                             0x0000502c   Section        0  ff.o(i.clust2sect)
    i.cmp_lfn                                0x00005048   Section        0  ff.o(i.cmp_lfn)
    cmp_lfn                                  0x00005049   Thumb Code   138  ff.o(i.cmp_lfn)
    i.composeDataMsg                         0x000050d8   Section        0  main.o(i.composeDataMsg)
    i.composeMessage                         0x00005128   Section        0  main.o(i.composeMessage)
    i.configHibernate                        0x00005304   Section        0  main.o(i.configHibernate)
    i.configTimerGSM                         0x0000537c   Section        0  gsm_fona808.o(i.configTimerGSM)
    i.configUART                             0x000053e4   Section        0  uartconfiguration.o(i.configUART)
    i.configWatchDog                         0x00005530   Section        0  main.o(i.configWatchDog)
    i.configWtimer                           0x000055a4   Section        0  main.o(i.configWtimer)
    i.create_chain                           0x00005644   Section        0  ff.o(i.create_chain)
    create_chain                             0x00005645   Thumb Code   202  ff.o(i.create_chain)
    i.create_name                            0x00005710   Section        0  ff.o(i.create_name)
    create_name                              0x00005711   Thumb Code   616  ff.o(i.create_name)
    i.dir_alloc                              0x0000598c   Section        0  ff.o(i.dir_alloc)
    dir_alloc                                0x0000598d   Thumb Code    86  ff.o(i.dir_alloc)
    i.dir_find                               0x000059e2   Section        0  ff.o(i.dir_find)
    dir_find                                 0x000059e3   Thumb Code   222  ff.o(i.dir_find)
    i.dir_next                               0x00005ac0   Section        0  ff.o(i.dir_next)
    dir_next                                 0x00005ac1   Thumb Code   272  ff.o(i.dir_next)
    i.dir_read                               0x00005bd0   Section        0  ff.o(i.dir_read)
    dir_read                                 0x00005bd1   Thumb Code   196  ff.o(i.dir_read)
    i.dir_register                           0x00005c94   Section        0  ff.o(i.dir_register)
    dir_register                             0x00005c95   Thumb Code   310  ff.o(i.dir_register)
    i.dir_sdi                                0x00005dca   Section        0  ff.o(i.dir_sdi)
    dir_sdi                                  0x00005dcb   Thumb Code   156  ff.o(i.dir_sdi)
    i.disk_initialize                        0x00005e68   Section        0  mmc-dk-tm4c123g.o(i.disk_initialize)
    i.disk_ioctl                             0x00005fd4   Section        0  mmc-dk-tm4c123g.o(i.disk_ioctl)
    i.disk_read                              0x0000617c   Section        0  mmc-dk-tm4c123g.o(i.disk_read)
    i.disk_status                            0x00006214   Section        0  mmc-dk-tm4c123g.o(i.disk_status)
    i.disk_timerproc                         0x00006228   Section        0  mmc-dk-tm4c123g.o(i.disk_timerproc)
    i.disk_write                             0x00006254   Section        0  mmc-dk-tm4c123g.o(i.disk_write)
    i.dispClear                              0x00006318   Section        0  main.o(i.dispClear)
    i.dispTitle                              0x00006370   Section        0  main.o(i.dispTitle)
    i.dispUpdate                             0x0000642c   Section        0  main.o(i.dispUpdate)
    i.displayInit                            0x00007064   Section        0  main.o(i.displayInit)
    i.f_close                                0x00007080   Section        0  ff.o(i.f_close)
    i.f_getfree                              0x00007096   Section        0  ff.o(i.f_getfree)
    i.f_lseek                                0x0000719a   Section        0  ff.o(i.f_lseek)
    i.f_mkdir                                0x00007348   Section        0  ff.o(i.f_mkdir)
    i.f_mount                                0x000074b0   Section        0  ff.o(i.f_mount)
    i.f_open                                 0x000074dc   Section        0  ff.o(i.f_open)
    i.f_opendir                              0x00007640   Section        0  ff.o(i.f_opendir)
    i.f_read                                 0x000076b8   Section        0  ff.o(i.f_read)
    i.f_readdir                              0x00007884   Section        0  ff.o(i.f_readdir)
    i.f_sync                                 0x000078e4   Section        0  ff.o(i.f_sync)
    i.f_write                                0x00007992   Section        0  ff.o(i.f_write)
    i.ff_convert                             0x00007b9c   Section        0  cc932.o(i.ff_convert)
    i.ff_wtoupper                            0x00007c38   Section        0  cc932.o(i.ff_wtoupper)
    i.fit_lfn                                0x00007c70   Section        0  ff.o(i.fit_lfn)
    fit_lfn                                  0x00007c71   Thumb Code   122  ff.o(i.fit_lfn)
    i.flagsSet                               0x00007cf0   Section        0  main.o(i.flagsSet)
    i.float2str                              0x00007d94   Section        0  strfunc.o(i.float2str)
    i.follow_path                            0x00007f04   Section        0  ff.o(i.follow_path)
    follow_path                              0x00007f05   Thumb Code   146  ff.o(i.follow_path)
    i.fuseDataGPS                            0x00007f96   Section        0  gps_fona.o(i.fuseDataGPS)
    i.gen_numname                            0x00008004   Section        0  ff.o(i.gen_numname)
    i.getBatstat                             0x000080d0   Section        0  gsm_fona808.o(i.getBatstat)
    i.getGPSFix                              0x000081b0   Section        0  gps_fona.o(i.getGPSFix)
    i.getGSMFunc                             0x00008290   Section        0  gsm_fona808.o(i.getGSMFunc)
    i.getGSMNetworkReg                       0x000082e8   Section        0  gsm_fona808.o(i.getGSMNetworkReg)
    i.getGSMSignalQlty                       0x0000833c   Section        0  gsm_fona808.o(i.getGSMSignalQlty)
    i.getTime                                0x0000838c   Section        0  main.o(i.getTime)
    i.get_fat                                0x00008490   Section        0  ff.o(i.get_fat)
    i.get_fattime                            0x00008574   Section        0  mmc-dk-tm4c123g.o(i.get_fattime)
    i.get_fileinfo                           0x0000857c   Section        0  ff.o(i.get_fileinfo)
    get_fileinfo                             0x0000857d   Thumb Code   316  ff.o(i.get_fileinfo)
    i.isGSMOn                                0x000086b8   Section        0  gsm_fona808.o(i.isGSMOn)
    i.ld_clust                               0x000086f8   Section        0  ff.o(i.ld_clust)
    ld_clust                                 0x000086f9   Thumb Code    32  ff.o(i.ld_clust)
    i.logData                                0x00008718   Section        0  sd_card.o(i.logData)
    i.main                                   0x000087e0   Section        0  main.o(i.main)
    i.mem_cmp                                0x00008930   Section        0  ff.o(i.mem_cmp)
    mem_cmp                                  0x00008931   Thumb Code    38  ff.o(i.mem_cmp)
    i.mem_cpy                                0x00008956   Section        0  ff.o(i.mem_cpy)
    mem_cpy                                  0x00008957   Thumb Code    26  ff.o(i.mem_cpy)
    i.mem_set                                0x00008970   Section        0  ff.o(i.mem_set)
    mem_set                                  0x00008971   Thumb Code    20  ff.o(i.mem_set)
    i.move_window                            0x00008984   Section        0  ff.o(i.move_window)
    move_window                              0x00008985   Thumb Code    50  ff.o(i.move_window)
    i.openFile                               0x000089b8   Section        0  sd_card.o(i.openFile)
    i.parseDataGPS                           0x00008a10   Section        0  gps_fona.o(i.parseDataGPS)
    i.pick_lfn                               0x00008a70   Section        0  ff.o(i.pick_lfn)
    pick_lfn                                 0x00008a71   Thumb Code   112  ff.o(i.pick_lfn)
    i.power_off                              0x00008ae4   Section        0  mmc-dk-tm4c123g.o(i.power_off)
    power_off                                0x00008ae5   Thumb Code     8  mmc-dk-tm4c123g.o(i.power_off)
    i.power_on                               0x00008af0   Section        0  mmc-dk-tm4c123g.o(i.power_on)
    power_on                                 0x00008af1   Thumb Code   158  mmc-dk-tm4c123g.o(i.power_on)
    i.put_fat                                0x00008ba4   Section        0  ff.o(i.put_fat)
    i.rcvr_datablock                         0x00008ce0   Section        0  mmc-dk-tm4c123g.o(i.rcvr_datablock)
    rcvr_datablock                           0x00008ce1   Thumb Code    76  mmc-dk-tm4c123g.o(i.rcvr_datablock)
    i.rcvr_spi                               0x00008d30   Section        0  mmc-dk-tm4c123g.o(i.rcvr_spi)
    rcvr_spi                                 0x00008d31   Thumb Code    36  mmc-dk-tm4c123g.o(i.rcvr_spi)
    i.rcvr_spi_m                             0x00008d58   Section        0  mmc-dk-tm4c123g.o(i.rcvr_spi_m)
    rcvr_spi_m                               0x00008d59   Thumb Code    12  mmc-dk-tm4c123g.o(i.rcvr_spi_m)
    i.removeInArray                          0x00008d64   Section        0  strfunc.o(i.removeInArray)
    i.remove_chain                           0x00008d8a   Section        0  ff.o(i.remove_chain)
    remove_chain                             0x00008d8b   Thumb Code   104  ff.o(i.remove_chain)
    i.responseRead                           0x00008df4   Section        0  uartconfiguration.o(i.responseRead)
    i.sdCard                                 0x00008e30   Section        0  sd_card.o(i.sdCard)
    i.sdInit                                 0x00008f4c   Section        0  sd_card.o(i.sdInit)
    i.sendDataCommands                       0x0000925c   Section        0  gsm_fona808.o(i.sendDataCommands)
    i.sendDataMsg                            0x00009730   Section        0  gsm_fona808.o(i.sendDataMsg)
    i.sendSMS                                0x0000984c   Section        0  gsm_fona808.o(i.sendSMS)
    i.send_cmd                               0x000099c8   Section        0  mmc-dk-tm4c123g.o(i.send_cmd)
    send_cmd                                 0x000099c9   Thumb Code   112  mmc-dk-tm4c123g.o(i.send_cmd)
    i.send_cmd12                             0x00009a38   Section        0  mmc-dk-tm4c123g.o(i.send_cmd12)
    send_cmd12                               0x00009a39   Thumb Code    66  mmc-dk-tm4c123g.o(i.send_cmd12)
    i.send_initial_clock_train               0x00009a7c   Section        0  mmc-dk-tm4c123g.o(i.send_initial_clock_train)
    send_initial_clock_train                 0x00009a7d   Thumb Code    96  mmc-dk-tm4c123g.o(i.send_initial_clock_train)
    i.set_max_speed                          0x00009ae0   Section        0  mmc-dk-tm4c123g.o(i.set_max_speed)
    set_max_speed                            0x00009ae1   Thumb Code    82  mmc-dk-tm4c123g.o(i.set_max_speed)
    i.simCardDetectOneTry                    0x00009b3c   Section        0  gsm_fona808.o(i.simCardDetectOneTry)
    i.st_clust                               0x00009b8c   Section        0  ff.o(i.st_clust)
    st_clust                                 0x00009b8d   Thumb Code    16  ff.o(i.st_clust)
    i.string2float                           0x00009b9c   Section        0  strfunc.o(i.string2float)
    i.stringAppend                           0x00009c30   Section        0  strfunc.o(i.stringAppend)
    i.stringLength                           0x00009c56   Section        0  strfunc.o(i.stringLength)
    i.sum_sfn                                0x00009c66   Section        0  ff.o(i.sum_sfn)
    sum_sfn                                  0x00009c67   Thumb Code    32  ff.o(i.sum_sfn)
    i.sync_fs                                0x00009c86   Section        0  ff.o(i.sync_fs)
    sync_fs                                  0x00009c87   Thumb Code   200  ff.o(i.sync_fs)
    i.sync_window                            0x00009d4e   Section        0  ff.o(i.sync_window)
    sync_window                              0x00009d4f   Thumb Code    82  ff.o(i.sync_window)
    i.truncate                               0x00009da0   Section        0  strfunc.o(i.truncate)
    i.ucmptime                               0x00009de8   Section        0  ustdlib.o(i.ucmptime)
    ucmptime                                 0x00009de9   Thumb Code   162  ustdlib.o(i.ucmptime)
    i.ulocaltime                             0x00009e8c   Section        0  ustdlib.o(i.ulocaltime)
    i.umktime                                0x00009f38   Section        0  ustdlib.o(i.umktime)
    i.usprintf                               0x00009f8c   Section        0  ustdlib.o(i.usprintf)
    i.ustrcmp                                0x00009fb2   Section        0  ustdlib.o(i.ustrcmp)
    i.ustrlen                                0x00009fc6   Section        0  ustdlib.o(i.ustrlen)
    i.ustrncmp                               0x00009fd6   Section        0  ustdlib.o(i.ustrncmp)
    i.ustrncpy                               0x0000a010   Section        0  ustdlib.o(i.ustrncpy)
    i.ustrstr                                0x0000a03a   Section        0  ustdlib.o(i.ustrstr)
    i.ustrtof                                0x0000a068   Section        0  ustdlib.o(i.ustrtof)
    i.uvsnprintf                             0x0000a268   Section        0  ustdlib.o(i.uvsnprintf)
    i.validate                               0x0000a52c   Section        0  ff.o(i.validate)
    validate                                 0x0000a52d   Thumb Code    54  ff.o(i.validate)
    i.waitAndCheckResp                       0x0000a564   Section        0  gsm_fona808.o(i.waitAndCheckResp)
    i.waitForUART1                           0x0000a5ac   Section        0  gsm_fona808.o(i.waitForUART1)
    i.wait_ready                             0x0000a5e0   Section        0  mmc-dk-tm4c123g.o(i.wait_ready)
    wait_ready                               0x0000a5e1   Thumb Code    36  mmc-dk-tm4c123g.o(i.wait_ready)
    i.writeToFile                            0x0000a608   Section        0  sd_card.o(i.writeToFile)
    i.xmit_datablock                         0x0000a640   Section        0  mmc-dk-tm4c123g.o(i.xmit_datablock)
    xmit_datablock                           0x0000a641   Thumb Code    94  mmc-dk-tm4c123g.o(i.xmit_datablock)
    i.xmit_spi                               0x0000a6a0   Section        0  mmc-dk-tm4c123g.o(i.xmit_spi)
    xmit_spi                                 0x0000a6a1   Thumb Code    34  mmc-dk-tm4c123g.o(i.xmit_spi)
    .constdata                               0x0000a6c8   Section       40  cfal96x64x16.o(.constdata)
    .constdata                               0x0000a6f0   Section     4160  main.o(.constdata)
    .constdata                               0x0000b730   Section      372  gsm_fona808.o(.constdata)
    .constdata                               0x0000b8a4   Section       76  ustdlib.o(.constdata)
    g_pcHex                                  0x0000b8a4   Data           4  ustdlib.o(.constdata)
    g_psDaysToMonth                          0x0000b8a8   Data          48  ustdlib.o(.constdata)
    g_pfExponents                            0x0000b8d8   Data          24  ustdlib.o(.constdata)
    .constdata                               0x0000b8f0   Section        8  gps_fona.o(.constdata)
    .constdata                               0x0000b8f8   Section       13  ff.o(.constdata)
    LfnOfs                                   0x0000b8f8   Data          13  ff.o(.constdata)
    .constdata                               0x0000b906   Section    30520  cc932.o(.constdata)
    uni2sjis                                 0x0000b906   Data       29560  cc932.o(.constdata)
    tbl_lower                                0x00012c7e   Data         480  cc932.o(.constdata)
    tbl_upper                                0x00012e5e   Data         480  cc932.o(.constdata)
    .constdata                               0x00013040   Section       28  uartstdio.o(.constdata)
    g_pcHex                                  0x00013040   Data           4  uartstdio.o(.constdata)
    g_ui32UARTBase                           0x00013044   Data          12  uartstdio.o(.constdata)
    g_ui32UARTPeriph                         0x00013050   Data          12  uartstdio.o(.constdata)
    .constdata                               0x0001305c   Section      268  interrupt.o(.constdata)
    g_pui32Priority                          0x0001305c   Data          32  interrupt.o(.constdata)
    g_pui32Regs                              0x0001307c   Data         156  interrupt.o(.constdata)
    g_pui32EnRegs                            0x00013118   Data          20  interrupt.o(.constdata)
    g_pui32Dii16Regs                         0x0001312c   Data          20  interrupt.o(.constdata)
    g_pui32PendRegs                          0x00013140   Data          20  interrupt.o(.constdata)
    g_pui32UnpendRegs                        0x00013154   Data          20  interrupt.o(.constdata)
    .constdata                               0x00013168   Section      460  sysctl.o(.constdata)
    g_pui32VCOFrequencies                    0x00013168   Data           8  sysctl.o(.constdata)
    g_pui32Xtals                             0x00013170   Data         108  sysctl.o(.constdata)
    g_pppui32XTALtoVCO                       0x000131dc   Data         288  sysctl.o(.constdata)
    g_sXTALtoMEMTIM                          0x000132fc   Data          56  sysctl.o(.constdata)
    .constdata                               0x00013334   Section       16  context.o(.constdata)
    .constdata                               0x00013344   Section      760  fontfixed6x8.o(.constdata)
    g_pui8FontFixed6x8Data                   0x00013344   Data         760  fontfixed6x8.o(.constdata)
    .constdata                               0x0001363c   Section      200  fontfixed6x8.o(.constdata)
    .constdata                               0x00013704   Section      129  ctype_o.o(.constdata)
    .constdata                               0x00013788   Section        4  ctype_o.o(.constdata)
    table                                    0x00013788   Data           4  ctype_o.o(.constdata)
    .conststring                             0x0001378c   Section       17  ustdlib.o(.conststring)
    .conststring                             0x0001379d   Section      506  sd_card.o(.conststring)
    .data                                    0x20000000   Section       19  cfal96x64x16.o(.data)
    g_ui8DisplayInitCommands                 0x20000000   Data          19  cfal96x64x16.o(.data)
    .data                                    0x20000018   Section      104  main.o(.data)
    bSelectPressed                           0x2000001d   Data           1  main.o(.data)
    ui64time                                 0x20000078   Data           8  main.o(.data)
    .data                                    0x20000080   Section        3  buttons.o(.data)
    g_ui8ButtonStates                        0x20000080   Data           1  buttons.o(.data)
    ui8SwitchClockA                          0x20000081   Data           1  buttons.o(.data)
    ui8SwitchClockB                          0x20000082   Data           1  buttons.o(.data)
    .data                                    0x20000084   Section      356  gsm_fona808.o(.data)
    counterForInit                           0x200001e4   Data           4  gsm_fona808.o(.data)
    .data                                    0x200001e8   Section       10  uartconfiguration.o(.data)
    .data                                    0x200001f4   Section        4  scheduler.o(.data)
    g_ui32SchedulerTickCount                 0x200001f4   Data           4  scheduler.o(.data)
    .data                                    0x200001f8   Section        8  gps_fona.o(.data)
    .data                                    0x20000200   Section        5  mmc-dk-tm4c123g.o(.data)
    Stat                                     0x20000200   Data           1  mmc-dk-tm4c123g.o(.data)
    PowerFlag                                0x20000201   Data           1  mmc-dk-tm4c123g.o(.data)
    Timer1                                   0x20000202   Data           1  mmc-dk-tm4c123g.o(.data)
    Timer2                                   0x20000203   Data           1  mmc-dk-tm4c123g.o(.data)
    CardType                                 0x20000204   Data           1  mmc-dk-tm4c123g.o(.data)
    .data                                    0x20000208   Section        6  ff.o(.data)
    FatFs                                    0x20000208   Data           4  ff.o(.data)
    Fsid                                     0x2000020c   Data           2  ff.o(.data)
    .data                                    0x20000210   Section        5  uartstdio.o(.data)
    g_ui32Base                               0x20000210   Data           4  uartstdio.o(.data)
    bLastWasCR                               0x20000214   Data           1  uartstdio.o(.data)
    .data                                    0x20000218   Section      432  sd_card.o(.data)
    g_pcCwdBuf                               0x2000021b   Data          80  sd_card.o(.data)
    .data                                    0x200003c8   Section        4  context.o(.data)
    g_psGrLibDefaults                        0x200003c8   Data           4  context.o(.data)
    .data                                    0x200003cc   Section        4  errno.o(.data)
    _errno                                   0x200003cc   Data           4  errno.o(.data)
    .bss                                     0x200003d0   Section      594  main.o(.bss)
    .bss                                     0x20000624   Section       76  gsm_fona808.o(.bss)
    .bss                                     0x20000670   Section      256  uartconfiguration.o(.bss)
    .bss                                     0x20000770   Section      223  gps_fona.o(.bss)
    .bss                                     0x20000850   Section      512  ff.o(.bss)
    LfnBuf                                   0x20000850   Data         512  ff.o(.bss)
    .bss                                     0x20000a50   Section       36  cmdline.o(.bss)
    g_ppcArgv                                0x20000a50   Data          36  cmdline.o(.bss)
    .bss                                     0x20000a74   Section     2840  sd_card.o(.bss)
    g_pcTmpBuf                               0x20001060   Data          80  sd_card.o(.bss)
    g_pcCmdBuf                               0x200010b0   Data          64  sd_card.o(.bss)
    g_sFatFs                                 0x200010f0   Data         564  sd_card.o(.bss)
    g_sDirObject                             0x20001324   Data          36  sd_card.o(.bss)
    g_sFileInfo                              0x20001348   Data          32  sd_card.o(.bss)
    g_sFileObject                            0x20001368   Data         548  sd_card.o(.bss)
    .bss                                     0x2000158c   Section       32  image.o(.bss)
    g_pui8Dictionary                         0x2000158c   Data          32  image.o(.bss)
    STACK                                    0x200015b0   Section     8192  startup_rvmdk.o(STACK)
    StackMem                                 0x200015b0   Data           0  startup_rvmdk.o(STACK)

    Global Symbols

    Symbol Name                              Value     Ov Type        Size  Object(Section)

    BuildAttributes$$THM_ISAv4$E$P$D$K$B$S$7EM$VFPi3$EXTD16$VFPS$VFMA$PE$A:L22UL41UL21$X:L11$S22US41US21$IEEE1$IW$USESV6$~STKCKD$USESV7$~SHL$OTIME$ROPI$IEEEX$EBA8$MICROLIB$REQ8$PRES8$EABIv2 0x00000000   Number         0  anon$$obj.o ABSOLUTE
    __ARM_use_no_argv                        0x00000000   Number         0  main.o ABSOLUTE
    __Vectors                                0x00000000   Data           0  startup_rvmdk.o(RESET)
    _printf_a                                0x00000000   Number         0  stubs.o ABSOLUTE
    _printf_c                                0x00000000   Number         0  stubs.o ABSOLUTE
    _printf_charcount                        0x00000000   Number         0  stubs.o ABSOLUTE
    _printf_d                                0x00000000   Number         0  stubs.o ABSOLUTE
    _printf_e                                0x00000000   Number         0  stubs.o ABSOLUTE
    _printf_f                                0x00000000   Number         0  stubs.o ABSOLUTE
    _printf_flags                            0x00000000   Number         0  stubs.o ABSOLUTE
    _printf_fp_dec                           0x00000000   Number         0  stubs.o ABSOLUTE
    _printf_fp_hex                           0x00000000   Number         0  stubs.o ABSOLUTE
    _printf_g                                0x00000000   Number         0  stubs.o ABSOLUTE
    _printf_i                                0x00000000   Number         0  stubs.o ABSOLUTE
    _printf_int_dec                          0x00000000   Number         0  stubs.o ABSOLUTE
    _printf_l                                0x00000000   Number         0  stubs.o ABSOLUTE
    _printf_lc                               0x00000000   Number         0  stubs.o ABSOLUTE
    _printf_ll                               0x00000000   Number         0  stubs.o ABSOLUTE
    _printf_lld                              0x00000000   Number         0  stubs.o ABSOLUTE
    _printf_lli                              0x00000000   Number         0  stubs.o ABSOLUTE
    _printf_llo                              0x00000000   Number         0  stubs.o ABSOLUTE
    _printf_llu                              0x00000000   Number         0  stubs.o ABSOLUTE
    _printf_llx                              0x00000000   Number         0  stubs.o ABSOLUTE
    _printf_longlong_dec                     0x00000000   Number         0  stubs.o ABSOLUTE
    _printf_longlong_hex                     0x00000000   Number         0  stubs.o ABSOLUTE
    _printf_longlong_oct                     0x00000000   Number         0  stubs.o ABSOLUTE
    _printf_ls                               0x00000000   Number         0  stubs.o ABSOLUTE
    _printf_mbtowc                           0x00000000   Number         0  stubs.o ABSOLUTE
    _printf_n                                0x00000000   Number         0  stubs.o ABSOLUTE
    _printf_o                                0x00000000   Number         0  stubs.o ABSOLUTE
    _printf_p                                0x00000000   Number         0  stubs.o ABSOLUTE
    _printf_percent                          0x00000000   Number         0  stubs.o ABSOLUTE
    _printf_pre_padding                      0x00000000   Number         0  stubs.o ABSOLUTE
    _printf_return_value                     0x00000000   Number         0  stubs.o ABSOLUTE
    _printf_s                                0x00000000   Number         0  stubs.o ABSOLUTE
    _printf_sizespec                         0x00000000   Number         0  stubs.o ABSOLUTE
    _printf_str                              0x00000000   Number         0  stubs.o ABSOLUTE
    _printf_truncate_signed                  0x00000000   Number         0  stubs.o ABSOLUTE
    _printf_truncate_unsigned                0x00000000   Number         0  stubs.o ABSOLUTE
    _printf_u                                0x00000000   Number         0  stubs.o ABSOLUTE
    _printf_wc                               0x00000000   Number         0  stubs.o ABSOLUTE
    _printf_wctomb                           0x00000000   Number         0  stubs.o ABSOLUTE
    _printf_widthprec                        0x00000000   Number         0  stubs.o ABSOLUTE
    _printf_x                                0x00000000   Number         0  stubs.o ABSOLUTE
    __cpp_initialize__aeabi_                  - Undefined Weak Reference
    __cxa_finalize                            - Undefined Weak Reference
    _clock_init                               - Undefined Weak Reference
    _microlib_exit                            - Undefined Weak Reference
    Reset_Handler                            0x0000026d   Thumb Code     0  startup_rvmdk.o(RESET)
    __main                                   0x00000289   Thumb Code     0  entry.o(.ARM.Collect$$$$00000000)
    _main_stk                                0x00000289   Thumb Code     0  entry2.o(.ARM.Collect$$$$00000001)
    _main_scatterload                        0x0000028d   Thumb Code     0  entry5.o(.ARM.Collect$$$$00000004)
    __main_after_scatterload                 0x00000291   Thumb Code     0  entry5.o(.ARM.Collect$$$$00000004)
    _main_clock                              0x00000291   Thumb Code     0  entry7b.o(.ARM.Collect$$$$00000008)
    _main_cpp_init                           0x00000291   Thumb Code     0  entry8b.o(.ARM.Collect$$$$0000000A)
    _main_init                               0x00000291   Thumb Code     0  entry9a.o(.ARM.Collect$$$$0000000B)
    __rt_final_cpp                           0x00000299   Thumb Code     0  entry10a.o(.ARM.Collect$$$$0000000D)
    __rt_final_exit                          0x00000299   Thumb Code     0  entry11a.o(.ARM.Collect$$$$0000000F)
    __aeabi_uldivmod                         0x0000029d   Thumb Code    98  uldiv.o(.text)
    __aeabi_memcpy                           0x000002ff   Thumb Code    36  memcpya.o(.text)
    __aeabi_memcpy4                          0x000002ff   Thumb Code     0  memcpya.o(.text)
    __aeabi_memcpy8                          0x000002ff   Thumb Code     0  memcpya.o(.text)
    __aeabi_memset                           0x00000323   Thumb Code    14  memseta.o(.text)
    __aeabi_memset4                          0x00000323   Thumb Code     0  memseta.o(.text)
    __aeabi_memset8                          0x00000323   Thumb Code     0  memseta.o(.text)
    __aeabi_memclr                           0x00000331   Thumb Code     4  memseta.o(.text)
    __aeabi_memclr4                          0x00000331   Thumb Code     0  memseta.o(.text)
    __aeabi_memclr8                          0x00000331   Thumb Code     0  memseta.o(.text)
    _memset$wrapper                          0x00000335   Thumb Code    18  memseta.o(.text)
    strcat                                   0x00000347   Thumb Code    24  strcat.o(.text)
    strncpy                                  0x0000035f   Thumb Code    24  strncpy.o(.text)
    strlen                                   0x00000377   Thumb Code    14  strlen.o(.text)
    strcmp                                   0x00000385   Thumb Code    28  strcmp.o(.text)
    strcpy                                   0x000003a1   Thumb Code    18  strcpy.o(.text)
    strtoull                                 0x000003b3   Thumb Code     4  strtoull.o(.text)
    atoi                                     0x000003b7   Thumb Code    26  atoi.o(.text)
    __aeabi_dadd                             0x000003d1   Thumb Code   322  dadd.o(.text)
    __aeabi_dsub                             0x00000513   Thumb Code     6  dadd.o(.text)
    __aeabi_drsub                            0x00000519   Thumb Code     6  dadd.o(.text)
    __aeabi_dmul                             0x0000051f   Thumb Code   228  dmul.o(.text)
    __aeabi_ddiv                             0x00000603   Thumb Code   222  ddiv.o(.text)
    __aeabi_i2d                              0x000006e1   Thumb Code    34  dflti.o(.text)
    __aeabi_d2iz                             0x00000703   Thumb Code    62  dfixi.o(.text)
    __aeabi_d2ulz                            0x00000741   Thumb Code    48  dfixul.o(.text)
    __aeabi_f2d                              0x00000771   Thumb Code    38  f2d.o(.text)
    __aeabi_cdcmpeq                          0x00000799   Thumb Code     0  cdcmple.o(.text)
    __aeabi_cdcmple                          0x00000799   Thumb Code    38  cdcmple.o(.text)
    __aeabi_cdrcmple                         0x000007c1   Thumb Code    38  cdrcmple.o(.text)
    __aeabi_d2f                              0x000007e9   Thumb Code    56  d2f.o(.text)
    __aeabi_uidiv                            0x00000821   Thumb Code     0  uidiv.o(.text)
    __aeabi_uidivmod                         0x00000821   Thumb Code    44  uidiv.o(.text)
    __aeabi_llsl                             0x0000084d   Thumb Code    30  llshl.o(.text)
    _ll_shift_l                              0x0000084d   Thumb Code     0  llshl.o(.text)
    __aeabi_llsr                             0x0000086b   Thumb Code    32  llushr.o(.text)
    _ll_ushift_r                             0x0000086b   Thumb Code     0  llushr.o(.text)
    __aeabi_lasr                             0x0000088b   Thumb Code    36  llsshr.o(.text)
    _ll_sshift_r                             0x0000088b   Thumb Code     0  llsshr.o(.text)
    strtol                                   0x000008af   Thumb Code   112  strtol.o(.text)
    __strtoull                               0x0000091f   Thumb Code   124  __strtoull.o(.text)
    __I$use$fp                               0x0000099b   Thumb Code     0  iusefp.o(.text)
    _float_round                             0x0000099b   Thumb Code    18  fepilogue.o(.text)
    _float_epilogue                          0x000009ad   Thumb Code    90  fepilogue.o(.text)
    _double_round                            0x00000a07   Thumb Code    26  depilogue.o(.text)
    _double_epilogue                         0x00000a21   Thumb Code   164  depilogue.o(.text)
    __scatterload                            0x00000ac5   Thumb Code    28  init.o(.text)
    __scatterload_rt2                        0x00000ac5   Thumb Code     0  init.o(.text)
    __rt_ctype_table                         0x00000ae9   Thumb Code     4  ctype_o.o(.text)
    _strtoul                                 0x00000af1   Thumb Code   158  _strtoul.o(.text)
    _strtoull                                0x00000b8f   Thumb Code   192  _strtoull.o(.text)
    _chval                                   0x00000c4f   Thumb Code    28  _chval.o(.text)
    __decompress                             0x00000c6b   Thumb Code     0  __dczerorl2.o(.text)
    __decompress1                            0x00000c6b   Thumb Code    92  __dczerorl2.o(.text)
    ButtonsInit                              0x00000cc9   Thumb Code    44  buttons.o(i.ButtonsInit)
    ButtonsPoll                              0x00000d01   Thumb Code   146  buttons.o(i.ButtonsPoll)
    CFAL96x64x16Init                         0x00000dc1   Thumb Code   396  cfal96x64x16.o(i.CFAL96x64x16Init)
    CmdLineProcess                           0x00001309   Thumb Code   114  cmdline.o(i.CmdLineProcess)
    Cmd_cat                                  0x00001385   Thumb Code   142  sd_card.o(i.Cmd_cat)
    Cmd_cd                                   0x00001451   Thumb Code   198  sd_card.o(i.Cmd_cd)
    Cmd_help                                 0x00001559   Thumb Code    42  sd_card.o(i.Cmd_help)
    Cmd_ls                                   0x000015c1   Thumb Code   336  sd_card.o(i.Cmd_ls)
    Cmd_pwd                                  0x00001791   Thumb Code    18  sd_card.o(i.Cmd_pwd)
    Cmd_return                               0x000017ad   Thumb Code    12  sd_card.o(i.Cmd_return)
    FatFsTickTimer                           0x000017d3   Thumb Code    10  sd_card.o(i.FatFsTickTimer)
    GPIODirModeSet                           0x000017dd   Thumb Code    40  gpio.o(i.GPIODirModeSet)
    GPIOIntClear                             0x00001805   Thumb Code     6  gpio.o(i.GPIOIntClear)
    GPIOIntEnable                            0x0000180b   Thumb Code    14  gpio.o(i.GPIOIntEnable)
    GPIOIntTypeSet                           0x00001819   Thumb Code    80  gpio.o(i.GPIOIntTypeSet)
    GPIOPadConfigSet                         0x00001869   Thumb Code   318  gpio.o(i.GPIOPadConfigSet)
    GPIOPinRead                              0x000019a7   Thumb Code     6  gpio.o(i.GPIOPinRead)
    GPIOPinTypeGPIOInput                     0x000019ad   Thumb Code    28  gpio.o(i.GPIOPinTypeGPIOInput)
    GPSFix                                   0x000019c9   Thumb Code   152  gps_fona.o(i.GPSFix)
    GPSGetData                               0x00001aa1   Thumb Code   118  gps_fona.o(i.GPSGetData)
    GPSParseLat                              0x00001b21   Thumb Code   164  gps_fona.o(i.GPSParseLat)
    GPSParseLong                             0x00001bd5   Thumb Code   164  gps_fona.o(i.GPSParseLong)
    GPSParseSpeed                            0x00001c89   Thumb Code    82  gps_fona.o(i.GPSParseSpeed)
    GPSPower                                 0x00001ced   Thumb Code   114  gps_fona.o(i.GPSPower)
    GPSPowerOneTry                           0x00001da9   Thumb Code   106  gps_fona.o(i.GPSPowerOneTry)
    GPSSendInf                               0x00001e69   Thumb Code   168  gps_fona.o(i.GPSSendInf)
    GPSWork                                  0x00001f3d   Thumb Code   120  main.o(i.GPSWork)
    GSMFullFunc                              0x00001ffd   Thumb Code   126  gsm_fona808.o(i.GSMFullFunc)
    GSMMinFunc                               0x00002095   Thumb Code   132  gsm_fona808.o(i.GSMMinFunc)
    GSMNetworkReg                            0x00002131   Thumb Code   146  gsm_fona808.o(i.GSMNetworkReg)
    GSMSignalQlty                            0x000021c9   Thumb Code   136  gsm_fona808.o(i.GSMSignalQlty)
    GSMTimerDisable                          0x00002255   Thumb Code    18  gsm_fona808.o(i.GSMTimerDisable)
    GSMTimerEnable                           0x0000226d   Thumb Code    56  gsm_fona808.o(i.GSMTimerEnable)
    GSMWork                                  0x000022ad   Thumb Code   232  main.o(i.GSMWork)
    GrContextFontSet                         0x00002419   Thumb Code     6  string.o(i.GrContextFontSet)
    GrContextInit                            0x00002421   Thumb Code    88  context.o(i.GrContextInit)
    GrDefaultStringRenderer                  0x00002485   Thumb Code   280  string.o(i.GrDefaultStringRenderer)
    GrFontBaselineGet                        0x0000259d   Thumb Code    44  string.o(i.GrFontBaselineGet)
    GrFontGlyphDataGet                       0x000025c9   Thumb Code   166  string.o(i.GrFontGlyphDataGet)
    GrFontGlyphRender                        0x0000266f   Thumb Code   646  string.o(i.GrFontGlyphRender)
    GrImageDraw                              0x000028f5   Thumb Code    24  image.o(i.GrImageDraw)
    GrMapISO8859_1_Unicode                   0x0000290d   Thumb Code     8  charmap.o(i.GrMapISO8859_1_Unicode)
    GrRectFill                               0x00002915   Thumb Code   180  rectangle.o(i.GrRectFill)
    GrStringDraw                             0x000029c9   Thumb Code    32  string.o(i.GrStringDraw)
    GrStringWidthGet                         0x000029e9   Thumb Code   192  string.o(i.GrStringWidthGet)
    HibernateClockConfig                     0x00002aa9   Thumb Code    64  hibernate.o(i.HibernateClockConfig)
    HibernateDataSet                         0x00002af9   Thumb Code    44  hibernate.o(i.HibernateDataSet)
    HibernateEnableExpClk                    0x00002b29   Thumb Code    20  hibernate.o(i.HibernateEnableExpClk)
    HibernateIntClear                        0x00002b41   Thumb Code    18  hibernate.o(i.HibernateIntClear)
    HibernateIntStatus                       0x00002b59   Thumb Code    12  hibernate.o(i.HibernateIntStatus)
    HibernateIsActive                        0x00002b69   Thumb Code    10  hibernate.o(i.HibernateIsActive)
    HibernateRTCEnable                       0x00002b79   Thumb Code    20  hibernate.o(i.HibernateRTCEnable)
    HibernateRTCGet                          0x00002b91   Thumb Code     6  hibernate.o(i.HibernateRTCGet)
    HibernateRTCMatchSet                     0x00002b9d   Thumb Code    14  hibernate.o(i.HibernateRTCMatchSet)
    HibernateRTCSet                          0x00002bb1   Thumb Code    42  hibernate.o(i.HibernateRTCSet)
    HibernateRTCTrimSet                      0x00002be5   Thumb Code    14  hibernate.o(i.HibernateRTCTrimSet)
    HibernateWakeSet                         0x00002bf9   Thumb Code    96  hibernate.o(i.HibernateWakeSet)
    Init_GSM                                 0x00002c65   Thumb Code   302  gsm_fona808.o(i.Init_GSM)
    Init_PortH                               0x00002de1   Thumb Code    56  gsm_fona808.o(i.Init_PortH)
    IntEnable                                0x00002e21   Thumb Code    92  interrupt.o(i.IntEnable)
    PortHIntHandler                          0x00003479   Thumb Code    44  gsm_fona808.o(i.PortHIntHandler)
    SchedulerElapsedTicksCalc                0x000034cb   Thumb Code    20  scheduler.o(i.SchedulerElapsedTicksCalc)
    SchedulerElapsedTicksGet                 0x000034e1   Thumb Code    16  scheduler.o(i.SchedulerElapsedTicksGet)
    SchedulerInit                            0x000034f5   Thumb Code    28  scheduler.o(i.SchedulerInit)
    SchedulerRun                             0x00003511   Thumb Code    56  scheduler.o(i.SchedulerRun)
    SchedulerSysTickIntHandler               0x00003555   Thumb Code    18  scheduler.o(i.SchedulerSysTickIntHandler)
    SimCardDetect                            0x0000356d   Thumb Code   124  gsm_fona808.o(i.SimCardDetect)
    StringFromFResult                        0x0000362d   Thumb Code    36  sd_card.o(i.StringFromFResult)
    SysCtlClockGet                           0x00003669   Thumb Code   250  sysctl.o(i.SysCtlClockGet)
    SysCtlPeripheralEnable                   0x00003775   Thumb Code    36  sysctl.o(i.SysCtlPeripheralEnable)
    SysTickEnable                            0x0000379d   Thumb Code    14  systick.o(i.SysTickEnable)
    SysTickIntEnable                         0x000037ab   Thumb Code    14  systick.o(i.SysTickIntEnable)
    SysTickPeriodSet                         0x000037b9   Thumb Code    10  systick.o(i.SysTickPeriodSet)
    SysTick_Init                             0x000037c3   Thumb Code    24  systick.o(i.SysTick_Init)
    SysTick_Wait                             0x000037db   Thumb Code    32  systick.o(i.SysTick_Wait)
    SysTick_delay_ms                         0x000037fb   Thumb Code    24  systick.o(i.SysTick_delay_ms)
    SysTick_delay_us                         0x00003813   Thumb Code    22  systick.o(i.SysTick_delay_us)
    TIMER0A_Handler                          0x00003829   Thumb Code    42  gsm_fona808.o(i.TIMER0A_Handler)
    TimerClockSourceSet                      0x00003875   Thumb Code     6  timer.o(i.TimerClockSourceSet)
    UART0IntHandler                          0x0000387d   Thumb Code   144  uartconfiguration.o(i.UART0IntHandler)
    UART1IntHandler                          0x00003925   Thumb Code   112  uartconfiguration.o(i.UART1IntHandler)
    UARTCharPut                              0x000039a9   Thumb Code    12  uart.o(i.UARTCharPut)
    UARTCharsAvail                           0x000039b5   Thumb Code    10  uart.o(i.UARTCharsAvail)
    UARTFIFOEnable                           0x000039bf   Thumb Code    10  uart.o(i.UARTFIFOEnable)
    UARTFIFOLevelSet                         0x000039c9   Thumb Code     6  uart.o(i.UARTFIFOLevelSet)
    UARTIntClear                             0x000039cf   Thumb Code     4  uart.o(i.UARTIntClear)
    UARTSend                                 0x000039d3   Thumb Code    42  uartconfiguration.o(i.UARTSend)
    UARTStdioConfig                          0x000039fd   Thumb Code    96  uartstdio.o(i.UARTStdioConfig)
    UARTgets                                 0x00003a69   Thumb Code   138  uartstdio.o(i.UARTgets)
    UARTprintf                               0x00003b05   Thumb Code    26  uartstdio.o(i.UARTprintf)
    UARTvprintf                              0x00003b21   Thumb Code   574  uartstdio.o(i.UARTvprintf)
    UARTwrite                                0x00003d71   Thumb Code    58  uartstdio.o(i.UARTwrite)
    URCfound                                 0x00003db1   Thumb Code    34  gsm_fona808.o(i.URCfound)
    WTimer0IntHandler                        0x00003e49   Thumb Code    94  main.o(i.WTimer0IntHandler)
    WatchdogIntHandler                       0x00003ecd   Thumb Code    24  main.o(i.WatchdogIntHandler)
    __0sprintf                               0x00003ee5   Thumb Code    34  printfa.o(i.__0sprintf)
    __1sprintf                               0x00003ee5   Thumb Code     0  printfa.o(i.__0sprintf)
    __2sprintf                               0x00003ee5   Thumb Code     0  printfa.o(i.__0sprintf)
    __c89sprintf                             0x00003ee5   Thumb Code     0  printfa.o(i.__0sprintf)
    sprintf                                  0x00003ee5   Thumb Code     0  printfa.o(i.__0sprintf)
    __aeabi_errno_addr                       0x00003f0d   Thumb Code     4  errno.o(i.__aeabi_errno_addr)
    __rt_errno_addr                          0x00003f0d   Thumb Code     0  errno.o(i.__aeabi_errno_addr)
    __hardfp_ceil                            0x00003f19   Thumb Code   252  ceil.o(i.__hardfp_ceil)
    __hardfp_floor                           0x00004031   Thumb Code   252  floor.o(i.__hardfp_floor)
    __scatterload_copy                       0x00004149   Thumb Code    14  handlers.o(i.__scatterload_copy)
    __scatterload_null                       0x00004157   Thumb Code     2  handlers.o(i.__scatterload_null)
    __scatterload_zeroinit                   0x00004159   Thumb Code    14  handlers.o(i.__scatterload_zeroinit)
    buttonHandler                            0x00004a15   Thumb Code   152  main.o(i.buttonHandler)
    closeFiles                               0x00004f05   Thumb Code   198  sd_card.o(i.closeFiles)
    clust2sect                               0x0000502d   Thumb Code    26  ff.o(i.clust2sect)
    composeDataMsg                           0x000050d9   Thumb Code    50  main.o(i.composeDataMsg)
    composeMessage                           0x00005129   Thumb Code   326  main.o(i.composeMessage)
    configHibernate                          0x00005305   Thumb Code   112  main.o(i.configHibernate)
    configTimerGSM                           0x0000537d   Thumb Code    96  gsm_fona808.o(i.configTimerGSM)
    configUART                               0x000053e5   Thumb Code   298  uartconfiguration.o(i.configUART)
    configWatchDog                           0x00005531   Thumb Code   114  main.o(i.configWatchDog)
    configWtimer                             0x000055a5   Thumb Code   152  main.o(i.configWtimer)
    disk_initialize                          0x00005e69   Thumb Code   352  mmc-dk-tm4c123g.o(i.disk_initialize)
    disk_ioctl                               0x00005fd5   Thumb Code   420  mmc-dk-tm4c123g.o(i.disk_ioctl)
    disk_read                                0x0000617d   Thumb Code   142  mmc-dk-tm4c123g.o(i.disk_read)
    disk_status                              0x00006215   Thumb Code    14  mmc-dk-tm4c123g.o(i.disk_status)
    disk_timerproc                           0x00006229   Thumb Code    34  mmc-dk-tm4c123g.o(i.disk_timerproc)
    disk_write                               0x00006255   Thumb Code   188  mmc-dk-tm4c123g.o(i.disk_write)
    dispClear                                0x00006319   Thumb Code    78  main.o(i.dispClear)
    dispTitle                                0x00006371   Thumb Code   176  main.o(i.dispTitle)
    dispUpdate                               0x0000642d   Thumb Code  3048  main.o(i.dispUpdate)
    displayInit                              0x00007065   Thumb Code    18  main.o(i.displayInit)
    f_close                                  0x00007081   Thumb Code    22  ff.o(i.f_close)
    f_getfree                                0x00007097   Thumb Code   260  ff.o(i.f_getfree)
    f_lseek                                  0x0000719b   Thumb Code   430  ff.o(i.f_lseek)
    f_mkdir                                  0x00007349   Thumb Code   354  ff.o(i.f_mkdir)
    f_mount                                  0x000074b1   Thumb Code    38  ff.o(i.f_mount)
    f_open                                   0x000074dd   Thumb Code   350  ff.o(i.f_open)
    f_opendir                                0x00007641   Thumb Code   116  ff.o(i.f_opendir)
    f_read                                   0x000076b9   Thumb Code   458  ff.o(i.f_read)
    f_readdir                                0x00007885   Thumb Code    92  ff.o(i.f_readdir)
    f_sync                                   0x000078e5   Thumb Code   174  ff.o(i.f_sync)
    f_write                                  0x00007993   Thumb Code   522  ff.o(i.f_write)
    ff_convert                               0x00007b9d   Thumb Code   150  cc932.o(i.ff_convert)
    ff_wtoupper                              0x00007c39   Thumb Code    46  cc932.o(i.ff_wtoupper)
    flagsSet                                 0x00007cf1   Thumb Code   146  main.o(i.flagsSet)
    float2str                                0x00007d95   Thumb Code   336  strfunc.o(i.float2str)
    fuseDataGPS                              0x00007f97   Thumb Code   110  gps_fona.o(i.fuseDataGPS)
    gen_numname                              0x00008005   Thumb Code   202  ff.o(i.gen_numname)
    getBatstat                               0x000080d1   Thumb Code   190  gsm_fona808.o(i.getBatstat)
    getGPSFix                                0x000081b1   Thumb Code   106  gps_fona.o(i.getGPSFix)
    getGSMFunc                               0x00008291   Thumb Code    58  gsm_fona808.o(i.getGSMFunc)
    getGSMNetworkReg                         0x000082e9   Thumb Code    56  gsm_fona808.o(i.getGSMNetworkReg)
    getGSMSignalQlty                         0x0000833d   Thumb Code    56  gsm_fona808.o(i.getGSMSignalQlty)
    getTime                                  0x0000838d   Thumb Code   236  main.o(i.getTime)
    get_fat                                  0x00008491   Thumb Code   228  ff.o(i.get_fat)
    get_fattime                              0x00008575   Thumb Code     4  mmc-dk-tm4c123g.o(i.get_fattime)
    isGSMOn                                  0x000086b9   Thumb Code    48  gsm_fona808.o(i.isGSMOn)
    logData                                  0x00008719   Thumb Code   172  sd_card.o(i.logData)
    main                                     0x000087e1   Thumb Code   280  main.o(i.main)
    openFile                                 0x000089b9   Thumb Code    48  sd_card.o(i.openFile)
    parseDataGPS                             0x00008a11   Thumb Code    92  gps_fona.o(i.parseDataGPS)
    put_fat                                  0x00008ba5   Thumb Code   316  ff.o(i.put_fat)
    removeInArray                            0x00008d65   Thumb Code    38  strfunc.o(i.removeInArray)
    responseRead                             0x00008df5   Thumb Code    42  uartconfiguration.o(i.responseRead)
    sdCard                                   0x00008e31   Thumb Code   100  sd_card.o(i.sdCard)
    sdInit                                   0x00008f4d   Thumb Code   554  sd_card.o(i.sdInit)
    sendDataCommands                         0x0000925d   Thumb Code   860  gsm_fona808.o(i.sendDataCommands)
    sendDataMsg                              0x00009731   Thumb Code   270  gsm_fona808.o(i.sendDataMsg)
    sendSMS                                  0x0000984d   Thumb Code   304  gsm_fona808.o(i.sendSMS)
    simCardDetectOneTry                      0x00009b3d   Thumb Code    48  gsm_fona808.o(i.simCardDetectOneTry)
    string2float                             0x00009b9d   Thumb Code   138  strfunc.o(i.string2float)
    stringAppend                             0x00009c31   Thumb Code    38  strfunc.o(i.stringAppend)
    stringLength                             0x00009c57   Thumb Code    16  strfunc.o(i.stringLength)
    truncate                                 0x00009da1   Thumb Code    64  strfunc.o(i.truncate)
    ulocaltime                               0x00009e8d   Thumb Code   166  ustdlib.o(i.ulocaltime)
    umktime                                  0x00009f39   Thumb Code    84  ustdlib.o(i.umktime)
    usprintf                                 0x00009f8d   Thumb Code    38  ustdlib.o(i.usprintf)
    ustrcmp                                  0x00009fb3   Thumb Code    20  ustdlib.o(i.ustrcmp)
    ustrlen                                  0x00009fc7   Thumb Code    16  ustdlib.o(i.ustrlen)
    ustrncmp                                 0x00009fd7   Thumb Code    58  ustdlib.o(i.ustrncmp)
    ustrncpy                                 0x0000a011   Thumb Code    42  ustdlib.o(i.ustrncpy)
    ustrstr                                  0x0000a03b   Thumb Code    44  ustdlib.o(i.ustrstr)
    ustrtof                                  0x0000a069   Thumb Code   498  ustdlib.o(i.ustrtof)
    uvsnprintf                               0x0000a269   Thumb Code   694  ustdlib.o(i.uvsnprintf)
    waitAndCheckResp                         0x0000a565   Thumb Code    64  gsm_fona808.o(i.waitAndCheckResp)
    waitForUART1                             0x0000a5ad   Thumb Code    42  gsm_fona808.o(i.waitForUART1)
    writeToFile                              0x0000a609   Thumb Code    42  sd_card.o(i.writeToFile)
    g_sCFAL96x64x16                          0x0000a6c8   Data          40  cfal96x64x16.o(.constdata)
    g_pui8rdsllogo                           0x0000a6f0   Data        3939  main.o(.constdata)
    GSMStats                                 0x0000b730   Data           4  gsm_fona808.o(.constdata)
    GPSData                                  0x0000b8f0   Data           4  gps_fona.o(.constdata)
    GPSStats                                 0x0000b8f4   Data           4  gps_fona.o(.constdata)
    g_psDefaultCodePointMapTable             0x00013334   Data          16  context.o(.constdata)
    g_sFontFixed6x8                          0x0001363c   Data         200  fontfixed6x8.o(.constdata)
    __ctype_table                            0x00013704   Data         129  ctype_o.o(.constdata)
    Region$$Table$$Base                      0x00013998   Number         0  anon$$obj.o(Region$$Table)
    Region$$Table$$Limit                     0x000139b8   Number         0  anon$$obj.o(Region$$Table)
    scroll                                   0x20000018   Data           4  main.o(.data)
    bScrollPressed                           0x2000001c   Data           1  main.o(.data)
    g_psSchedulerTable                       0x20000020   Data          80  main.o(.data)
    g_ui32SchedulerNumTasks                  0x20000070   Data           4  main.o(.data)
    timerCounter                             0x20000074   Data           4  main.o(.data)
    URC                                      0x20000084   Data         352  gsm_fona808.o(.data)
    indexUART                                0x200001e8   Data           8  uartconfiguration.o(.data)
    UARTIntStat                              0x200001f0   Data           2  uartconfiguration.o(.data)
    gstats                                   0x200001f8   Data           8  gps_fona.o(.data)
    sdPeripheralEnable                       0x20000218   Data           1  sd_card.o(.data)
    returnToMain                             0x20000219   Data           1  sd_card.o(.data)
    dirCreated                               0x2000021a   Data           1  sd_card.o(.data)
    g_psFResultStrings                       0x2000026c   Data         160  sd_card.o(.data)
    g_psCmdTable                             0x2000030c   Data         132  sd_card.o(.data)
    bWritten                                 0x20000390   Data           4  sd_card.o(.data)
    bRead                                    0x20000394   Data           4  sd_card.o(.data)
    succStr                                  0x20000398   Data           8  sd_card.o(.data)
    failStr                                  0x200003a0   Data           8  sd_card.o(.data)
    totalStr                                 0x200003a8   Data           8  sd_card.o(.data)
    success                                  0x200003b0   Data           4  sd_card.o(.data)
    failure                                  0x200003b4   Data           4  sd_card.o(.data)
    total                                    0x200003b8   Data           4  sd_card.o(.data)
    fileRes                                  0x200003bc   Data           4  sd_card.o(.data)
    writeRes                                 0x200003c0   Data           4  sd_card.o(.data)
    logRes                                   0x200003c4   Data           4  sd_card.o(.data)
    msg                                      0x200003d0   Data         256  main.o(.bss)
    URL                                      0x200004d0   Data         256  main.o(.bss)
    g_sContext                               0x200005d0   Data          44  main.o(.bss)
    sFlag                                    0x200005fc   Data          28  main.o(.bss)
    tmstrr                                   0x20000618   Data          10  main.o(.bss)
    stats                                    0x20000624   Data          76  gsm_fona808.o(.bss)
    UARTResponse                             0x20000670   Data         256  uartconfiguration.o(.bss)
    data                                     0x20000770   Data         223  gps_fona.o(.bss)
    wrFile                                   0x20000a74   Data         548  sd_card.o(.bss)
    logFile                                  0x20000c98   Data         548  sd_card.o(.bss)
    wrFileDir                                0x20000ebc   Data          36  sd_card.o(.bss)
    wrFilepath                               0x20000ee0   Data         128  sd_card.o(.bss)
    logFilepath                              0x20000f60   Data         128  sd_card.o(.bss)
    filepath                                 0x20000fe0   Data         128  sd_card.o(.bss)
    __initial_sp                             0x200035b0   Data           0  startup_rvmdk.o(STACK)



==============================================================================

Memory Map of the image

  Image Entry point : 0x0000026d

  Load Region LR_IROM (Base: 0x00000000, Size: 0x00013d88, Max: 0x00040000, ABSOLUTE, COMPRESSED[0x00013b28])

    Execution Region ER_IROM (Base: 0x00000000, Size: 0x000139b8, Max: 0x00040000, ABSOLUTE)

    Base Addr    Size         Type   Attr      Idx    E Section Name        Object

    0x00000000   0x00000288   Code   RO           97  * RESET               startup_rvmdk.o
    0x00000288   0x00000000   Code   RO         3798  * .ARM.Collect$$$$00000000  mc_w.l(entry.o)
    0x00000288   0x00000004   Code   RO         4131    .ARM.Collect$$$$00000001  mc_w.l(entry2.o)
    0x0000028c   0x00000004   Code   RO         4134    .ARM.Collect$$$$00000004  mc_w.l(entry5.o)
    0x00000290   0x00000000   Code   RO         4136    .ARM.Collect$$$$00000008  mc_w.l(entry7b.o)
    0x00000290   0x00000000   Code   RO         4138    .ARM.Collect$$$$0000000A  mc_w.l(entry8b.o)
    0x00000290   0x00000008   Code   RO         4139    .ARM.Collect$$$$0000000B  mc_w.l(entry9a.o)
    0x00000298   0x00000000   Code   RO         4141    .ARM.Collect$$$$0000000D  mc_w.l(entry10a.o)
    0x00000298   0x00000000   Code   RO         4143    .ARM.Collect$$$$0000000F  mc_w.l(entry11a.o)
    0x00000298   0x00000004   Code   RO         4132    .ARM.Collect$$$$00002712  mc_w.l(entry2.o)
    0x0000029c   0x00000062   Code   RO         3801    .text               mc_w.l(uldiv.o)
    0x000002fe   0x00000024   Code   RO         3803    .text               mc_w.l(memcpya.o)
    0x00000322   0x00000024   Code   RO         3805    .text               mc_w.l(memseta.o)
    0x00000346   0x00000018   Code   RO         3807    .text               mc_w.l(strcat.o)
    0x0000035e   0x00000018   Code   RO         3809    .text               mc_w.l(strncpy.o)
    0x00000376   0x0000000e   Code   RO         3811    .text               mc_w.l(strlen.o)
    0x00000384   0x0000001c   Code   RO         3813    .text               mc_w.l(strcmp.o)
    0x000003a0   0x00000012   Code   RO         3815    .text               mc_w.l(strcpy.o)
    0x000003b2   0x00000004   Code   RO         4080    .text               mc_w.l(strtoull.o)
    0x000003b6   0x0000001a   Code   RO         4082    .text               mc_w.l(atoi.o)
    0x000003d0   0x0000014e   Code   RO         4084    .text               mf_w.l(dadd.o)
    0x0000051e   0x000000e4   Code   RO         4086    .text               mf_w.l(dmul.o)
    0x00000602   0x000000de   Code   RO         4088    .text               mf_w.l(ddiv.o)
    0x000006e0   0x00000022   Code   RO         4090    .text               mf_w.l(dflti.o)
    0x00000702   0x0000003e   Code   RO         4094    .text               mf_w.l(dfixi.o)
    0x00000740   0x00000030   Code   RO         4096    .text               mf_w.l(dfixul.o)
    0x00000770   0x00000026   Code   RO         4098    .text               mf_w.l(f2d.o)
    0x00000796   0x00000002   PAD
    0x00000798   0x00000028   Code   RO         4100    .text               mf_w.l(cdcmple.o)
    0x000007c0   0x00000028   Code   RO         4102    .text               mf_w.l(cdrcmple.o)
    0x000007e8   0x00000038   Code   RO         4104    .text               mf_w.l(d2f.o)
    0x00000820   0x0000002c   Code   RO         4148    .text               mc_w.l(uidiv.o)
    0x0000084c   0x0000001e   Code   RO         4150    .text               mc_w.l(llshl.o)
    0x0000086a   0x00000020   Code   RO         4152    .text               mc_w.l(llushr.o)
    0x0000088a   0x00000024   Code   RO         4154    .text               mc_w.l(llsshr.o)
    0x000008ae   0x00000070   Code   RO         4163    .text               mc_w.l(strtol.o)
    0x0000091e   0x0000007c   Code   RO         4165    .text               mc_w.l(__strtoull.o)
    0x0000099a   0x00000000   Code   RO         4167    .text               mc_w.l(iusefp.o)
    0x0000099a   0x0000006c   Code   RO         4168    .text               mf_w.l(fepilogue.o)
    0x00000a06   0x000000be   Code   RO         4170    .text               mf_w.l(depilogue.o)
    0x00000ac4   0x00000024   Code   RO         4176    .text               mc_w.l(init.o)
    0x00000ae8   0x00000008   Code   RO         4179    .text               mc_w.l(ctype_o.o)
    0x00000af0   0x0000009e   Code   RO         4207    .text               mc_w.l(_strtoul.o)
    0x00000b8e   0x000000c0   Code   RO         4209    .text               mc_w.l(_strtoull.o)
    0x00000c4e   0x0000001c   Code   RO         4214    .text               mc_w.l(_chval.o)
    0x00000c6a   0x0000005c   Code   RO         4224    .text               mc_w.l(__dczerorl2.o)
    0x00000cc6   0x00000002   PAD
    0x00000cc8   0x00000038   Code   RO          306    i.ButtonsInit       buttons.o
    0x00000d00   0x000000a4   Code   RO          307    i.ButtonsPoll       buttons.o
    0x00000da4   0x00000018   Code   RO            1    i.CFAL96x64x16ColorTranslate  cfal96x64x16.o
    0x00000dbc   0x00000002   Code   RO            2    i.CFAL96x64x16Flush  cfal96x64x16.o
    0x00000dbe   0x00000002   PAD
    0x00000dc0   0x000001b4   Code   RO            3    i.CFAL96x64x16Init  cfal96x64x16.o
    0x00000f74   0x0000008e   Code   RO            4    i.CFAL96x64x16LineDrawH  cfal96x64x16.o
    0x00001002   0x000000ae   Code   RO            5    i.CFAL96x64x16LineDrawV  cfal96x64x16.o
    0x000010b0   0x00000042   Code   RO            6    i.CFAL96x64x16PixelDraw  cfal96x64x16.o
    0x000010f2   0x00000150   Code   RO            7    i.CFAL96x64x16PixelDrawMultiple  cfal96x64x16.o
    0x00001242   0x0000002c   Code   RO            8    i.CFAL96x64x16RectFill  cfal96x64x16.o
    0x0000126e   0x00000002   PAD
    0x00001270   0x0000004c   Code   RO            9    i.CFAL96x64x16WriteCommand  cfal96x64x16.o
    0x000012bc   0x0000004c   Code   RO           10    i.CFAL96x64x16WriteData  cfal96x64x16.o
    0x00001308   0x0000007c   Code   RO         1415    i.CmdLineProcess    cmdline.o
    0x00001384   0x000000cc   Code   RO         1529    i.Cmd_cat           sd_card.o
    0x00001450   0x00000108   Code   RO         1530    i.Cmd_cd            sd_card.o
    0x00001558   0x00000068   Code   RO         1531    i.Cmd_help          sd_card.o
    0x000015c0   0x000001d0   Code   RO         1532    i.Cmd_ls            sd_card.o
    0x00001790   0x0000001c   Code   RO         1533    i.Cmd_pwd           sd_card.o
    0x000017ac   0x00000010   Code   RO         1534    i.Cmd_return        sd_card.o
    0x000017bc   0x00000016   Code   RO          996    i.DESELECT          mmc-dk-tm4c123g.o
    0x000017d2   0x0000000a   Code   RO         1535    i.FatFsTickTimer    sd_card.o
    0x000017dc   0x00000028   Code   RO         1642    i.GPIODirModeSet    driverlib.lib(gpio.o)
    0x00001804   0x00000006   Code   RO         1643    i.GPIOIntClear      driverlib.lib(gpio.o)
    0x0000180a   0x0000000e   Code   RO         1645    i.GPIOIntEnable     driverlib.lib(gpio.o)
    0x00001818   0x00000050   Code   RO         1649    i.GPIOIntTypeSet    driverlib.lib(gpio.o)
    0x00001868   0x0000013e   Code   RO         1652    i.GPIOPadConfigSet  driverlib.lib(gpio.o)
    0x000019a6   0x00000006   Code   RO         1654    i.GPIOPinRead       driverlib.lib(gpio.o)
    0x000019ac   0x0000001c   Code   RO         1663    i.GPIOPinTypeGPIOInput  driverlib.lib(gpio.o)
    0x000019c8   0x000000d8   Code   RO          912    i.GPSFix            gps_fona.o
    0x00001aa0   0x00000080   Code   RO          913    i.GPSGetData        gps_fona.o
    0x00001b20   0x000000b4   Code   RO          914    i.GPSParseLat       gps_fona.o
    0x00001bd4   0x000000b4   Code   RO          915    i.GPSParseLong      gps_fona.o
    0x00001c88   0x00000064   Code   RO          916    i.GPSParseSpeed     gps_fona.o
    0x00001cec   0x000000bc   Code   RO          917    i.GPSPower          gps_fona.o
    0x00001da8   0x000000c0   Code   RO          918    i.GPSPowerOneTry    gps_fona.o
    0x00001e68   0x000000d4   Code   RO          919    i.GPSSendInf        gps_fona.o
    0x00001f3c   0x000000c0   Code   RO          102    i.GPSWork           main.o
    0x00001ffc   0x00000098   Code   RO          335    i.GSMFullFunc       gsm_fona808.o
    0x00002094   0x0000009c   Code   RO          336    i.GSMMinFunc        gsm_fona808.o
    0x00002130   0x00000098   Code   RO          337    i.GSMNetworkReg     gsm_fona808.o
    0x000021c8   0x0000008c   Code   RO          339    i.GSMSignalQlty     gsm_fona808.o
    0x00002254   0x00000018   Code   RO          340    i.GSMTimerDisable   gsm_fona808.o
    0x0000226c   0x00000040   Code   RO          341    i.GSMTimerEnable    gsm_fona808.o
    0x000022ac   0x0000016c   Code   RO          103    i.GSMWork           main.o
    0x00002418   0x00000006   Code   RO         3457    i.GrContextFontSet  grlib.lib(string.o)
    0x0000241e   0x00000002   PAD
    0x00002420   0x00000064   Code   RO         3345    i.GrContextInit     grlib.lib(context.o)
    0x00002484   0x00000118   Code   RO         3458    i.GrDefaultStringRenderer  grlib.lib(string.o)
    0x0000259c   0x0000002c   Code   RO         3459    i.GrFontBaselineGet  grlib.lib(string.o)
    0x000025c8   0x000000a6   Code   RO         3462    i.GrFontGlyphDataGet  grlib.lib(string.o)
    0x0000266e   0x00000286   Code   RO         3463    i.GrFontGlyphRender  grlib.lib(string.o)
    0x000028f4   0x00000018   Code   RO         3393    i.GrImageDraw       grlib.lib(image.o)
    0x0000290c   0x00000008   Code   RO         3597    i.GrMapISO8859_1_Unicode  grlib.lib(charmap.o)
    0x00002914   0x000000b4   Code   RO         3427    i.GrRectFill        grlib.lib(rectangle.o)
    0x000029c8   0x00000020   Code   RO         3469    i.GrStringDraw      grlib.lib(string.o)
    0x000029e8   0x000000c0   Code   RO         3474    i.GrStringWidthGet  grlib.lib(string.o)
    0x00002aa8   0x00000050   Code   RO         1969    i.HibernateClockConfig  driverlib.lib(hibernate.o)
    0x00002af8   0x00000030   Code   RO         1972    i.HibernateDataSet  driverlib.lib(hibernate.o)
    0x00002b28   0x00000018   Code   RO         1974    i.HibernateEnableExpClk  driverlib.lib(hibernate.o)
    0x00002b40   0x00000018   Code   RO         1978    i.HibernateIntClear  driverlib.lib(hibernate.o)
    0x00002b58   0x00000010   Code   RO         1982    i.HibernateIntStatus  driverlib.lib(hibernate.o)
    0x00002b68   0x00000010   Code   RO         1984    i.HibernateIsActive  driverlib.lib(hibernate.o)
    0x00002b78   0x00000018   Code   RO         1988    i.HibernateRTCEnable  driverlib.lib(hibernate.o)
    0x00002b90   0x0000000c   Code   RO         1989    i.HibernateRTCGet   driverlib.lib(hibernate.o)
    0x00002b9c   0x00000014   Code   RO         1991    i.HibernateRTCMatchSet  driverlib.lib(hibernate.o)
    0x00002bb0   0x00000034   Code   RO         1995    i.HibernateRTCSet   driverlib.lib(hibernate.o)
    0x00002be4   0x00000014   Code   RO         1997    i.HibernateRTCTrimSet  driverlib.lib(hibernate.o)
    0x00002bf8   0x0000006c   Code   RO         2013    i.HibernateWakeSet  driverlib.lib(hibernate.o)
    0x00002c64   0x0000017c   Code   RO          342    i.Init_GSM          gsm_fona808.o
    0x00002de0   0x00000040   Code   RO          343    i.Init_PortH        gsm_fona808.o
    0x00002e20   0x00000064   Code   RO         2290    i.IntEnable         driverlib.lib(interrupt.o)
    0x00002e84   0x0000036c   Code   RO         3395    i.InternalImageDraw  grlib.lib(image.o)
    0x000031f0   0x00000286   Code   RO         3396    i.PixelTransparentDraw  grlib.lib(image.o)
    0x00003476   0x00000002   PAD
    0x00003478   0x0000003c   Code   RO          344    i.PortHIntHandler   gsm_fona808.o
    0x000034b4   0x00000016   Code   RO          997    i.SELECT            mmc-dk-tm4c123g.o
    0x000034ca   0x00000014   Code   RO          735    i.SchedulerElapsedTicksCalc  scheduler.o
    0x000034de   0x00000002   PAD
    0x000034e0   0x00000014   Code   RO          736    i.SchedulerElapsedTicksGet  scheduler.o
    0x000034f4   0x0000001c   Code   RO          737    i.SchedulerInit     scheduler.o
    0x00003510   0x00000044   Code   RO          738    i.SchedulerRun      scheduler.o
    0x00003554   0x00000018   Code   RO          739    i.SchedulerSysTickIntHandler  scheduler.o
    0x0000356c   0x000000c0   Code   RO          345    i.SimCardDetect     gsm_fona808.o
    0x0000362c   0x0000003c   Code   RO         1536    i.StringFromFResult  sd_card.o
    0x00003668   0x0000010c   Code   RO         2410    i.SysCtlClockGet    driverlib.lib(sysctl.o)
    0x00003774   0x00000028   Code   RO         2441    i.SysCtlPeripheralEnable  driverlib.lib(sysctl.o)
    0x0000379c   0x0000000e   Code   RO         2757    i.SysTickEnable     driverlib.lib(systick.o)
    0x000037aa   0x0000000e   Code   RO         2759    i.SysTickIntEnable  driverlib.lib(systick.o)
    0x000037b8   0x0000000a   Code   RO         2763    i.SysTickPeriodSet  driverlib.lib(systick.o)
    0x000037c2   0x00000018   Code   RO          663    i.SysTick_Init      systick.o
    0x000037da   0x00000020   Code   RO          664    i.SysTick_Wait      systick.o
    0x000037fa   0x00000018   Code   RO          665    i.SysTick_delay_ms  systick.o
    0x00003812   0x00000016   Code   RO          666    i.SysTick_delay_us  systick.o
    0x00003828   0x0000004c   Code   RO          346    i.TIMER0A_Handler   gsm_fona808.o
    0x00003874   0x00000006   Code   RO         2822    i.TimerClockSourceSet  driverlib.lib(timer.o)
    0x0000387a   0x00000002   PAD
    0x0000387c   0x000000a8   Code   RO          607    i.UART0IntHandler   uartconfiguration.o
    0x00003924   0x00000084   Code   RO          608    i.UART1IntHandler   uartconfiguration.o
    0x000039a8   0x0000000c   Code   RO         3063    i.UARTCharPut       driverlib.lib(uart.o)
    0x000039b4   0x0000000a   Code   RO         3065    i.UARTCharsAvail    driverlib.lib(uart.o)
    0x000039be   0x0000000a   Code   RO         3077    i.UARTFIFOEnable    driverlib.lib(uart.o)
    0x000039c8   0x00000006   Code   RO         3079    i.UARTFIFOLevelSet  driverlib.lib(uart.o)
    0x000039ce   0x00000004   Code   RO         3082    i.UARTIntClear      driverlib.lib(uart.o)
    0x000039d2   0x0000002a   Code   RO          609    i.UARTSend          uartconfiguration.o
    0x000039fc   0x0000006c   Code   RO         1461    i.UARTStdioConfig   uartstdio.o
    0x00003a68   0x0000009c   Code   RO         1463    i.UARTgets          uartstdio.o
    0x00003b04   0x0000001a   Code   RO         1464    i.UARTprintf        uartstdio.o
    0x00003b1e   0x00000002   PAD
    0x00003b20   0x00000250   Code   RO         1465    i.UARTvprintf       uartstdio.o
    0x00003d70   0x00000040   Code   RO         1466    i.UARTwrite         uartstdio.o
    0x00003db0   0x0000002c   Code   RO          347    i.URCfound          gsm_fona808.o
    0x00003ddc   0x0000006c   Code   RO         3475    i.UpdateContextCharMapping  grlib.lib(string.o)
    0x00003e48   0x00000084   Code   RO          105    i.WTimer0IntHandler  main.o
    0x00003ecc   0x00000018   Code   RO          106    i.WatchdogIntHandler  main.o
    0x00003ee4   0x00000028   Code   RO         4054    i.__0sprintf        mc_w.l(printfa.o)
    0x00003f0c   0x00000008   Code   RO         4156    i.__aeabi_errno_addr  mc_w.l(errno.o)
    0x00003f14   0x00000004   PAD
    0x00003f18   0x00000118   Code   RO         3772    i.__hardfp_ceil     m_wm.l(ceil.o)
    0x00004030   0x00000118   Code   RO         3778    i.__hardfp_floor    m_wm.l(floor.o)
    0x00004148   0x0000000e   Code   RO         4218    i.__scatterload_copy  mc_w.l(handlers.o)
    0x00004156   0x00000002   Code   RO         4219    i.__scatterload_null  mc_w.l(handlers.o)
    0x00004158   0x0000000e   Code   RO         4220    i.__scatterload_zeroinit  mc_w.l(handlers.o)
    0x00004166   0x00000002   PAD
    0x00004168   0x0000015c   Code   RO         4059    i._fp_digits        mc_w.l(printfa.o)
    0x000042c4   0x000006f0   Code   RO         4060    i._printf_core      mc_w.l(printfa.o)
    0x000049b4   0x00000026   Code   RO         4061    i._printf_post_padding  mc_w.l(printfa.o)
    0x000049da   0x00000030   Code   RO         4062    i._printf_pre_padding  mc_w.l(printfa.o)
    0x00004a0a   0x0000000a   Code   RO         4064    i._sputc            mc_w.l(printfa.o)
    0x00004a14   0x000000a4   Code   RO          107    i.buttonHandler     main.o
    0x00004ab8   0x00000090   Code   RO         1127    i.check_fs          ff.o
    0x00004b48   0x00000014   Code   RO         1128    i.chk_chr           ff.o
    0x00004b5c   0x0000039c   Code   RO         1129    i.chk_mounted       ff.o
    0x00004ef8   0x0000000c   Code   RO          998    i.chk_power         mmc-dk-tm4c123g.o
    0x00004f04   0x00000128   Code   RO         1537    i.closeFiles        sd_card.o
    0x0000502c   0x0000001a   Code   RO         1130    i.clust2sect        ff.o
    0x00005046   0x00000002   PAD
    0x00005048   0x00000090   Code   RO         1131    i.cmp_lfn           ff.o
    0x000050d8   0x00000050   Code   RO          108    i.composeDataMsg    main.o
    0x00005128   0x000001dc   Code   RO          109    i.composeMessage    main.o
    0x00005304   0x00000078   Code   RO          110    i.configHibernate   main.o
    0x0000537c   0x00000068   Code   RO          348    i.configTimerGSM    gsm_fona808.o
    0x000053e4   0x0000014c   Code   RO          610    i.configUART        uartconfiguration.o
    0x00005530   0x00000072   Code   RO          111    i.configWatchDog    main.o
    0x000055a2   0x00000002   PAD
    0x000055a4   0x000000a0   Code   RO          112    i.configWtimer      main.o
    0x00005644   0x000000ca   Code   RO         1132    i.create_chain      ff.o
    0x0000570e   0x00000002   PAD
    0x00005710   0x0000027c   Code   RO         1133    i.create_name       ff.o
    0x0000598c   0x00000056   Code   RO         1134    i.dir_alloc         ff.o
    0x000059e2   0x000000de   Code   RO         1135    i.dir_find          ff.o
    0x00005ac0   0x00000110   Code   RO         1136    i.dir_next          ff.o
    0x00005bd0   0x000000c4   Code   RO         1137    i.dir_read          ff.o
    0x00005c94   0x00000136   Code   RO         1138    i.dir_register      ff.o
    0x00005dca   0x0000009c   Code   RO         1140    i.dir_sdi           ff.o
    0x00005e66   0x00000002   PAD
    0x00005e68   0x0000016c   Code   RO          999    i.disk_initialize   mmc-dk-tm4c123g.o
    0x00005fd4   0x000001a8   Code   RO         1000    i.disk_ioctl        mmc-dk-tm4c123g.o
    0x0000617c   0x00000098   Code   RO         1001    i.disk_read         mmc-dk-tm4c123g.o
    0x00006214   0x00000014   Code   RO         1002    i.disk_status       mmc-dk-tm4c123g.o
    0x00006228   0x0000002c   Code   RO         1003    i.disk_timerproc    mmc-dk-tm4c123g.o
    0x00006254   0x000000c4   Code   RO         1004    i.disk_write        mmc-dk-tm4c123g.o
    0x00006318   0x00000058   Code   RO          113    i.dispClear         main.o
    0x00006370   0x000000bc   Code   RO          114    i.dispTitle         main.o
    0x0000642c   0x00000c38   Code   RO          115    i.dispUpdate        main.o
    0x00007064   0x0000001c   Code   RO          116    i.displayInit       main.o
    0x00007080   0x00000016   Code   RO         1142    i.f_close           ff.o
    0x00007096   0x00000104   Code   RO         1143    i.f_getfree         ff.o
    0x0000719a   0x000001ae   Code   RO         1144    i.f_lseek           ff.o
    0x00007348   0x00000168   Code   RO         1145    i.f_mkdir           ff.o
    0x000074b0   0x0000002c   Code   RO         1146    i.f_mount           ff.o
    0x000074dc   0x00000164   Code   RO         1147    i.f_open            ff.o
    0x00007640   0x00000078   Code   RO         1148    i.f_opendir         ff.o
    0x000076b8   0x000001ca   Code   RO         1149    i.f_read            ff.o
    0x00007882   0x00000002   PAD
    0x00007884   0x00000060   Code   RO         1150    i.f_readdir         ff.o
    0x000078e4   0x000000ae   Code   RO         1153    i.f_sync            ff.o
    0x00007992   0x0000020a   Code   RO         1157    i.f_write           ff.o
    0x00007b9c   0x0000009c   Code   RO         1432    i.ff_convert        cc932.o
    0x00007c38   0x00000038   Code   RO         1433    i.ff_wtoupper       cc932.o
    0x00007c70   0x00000080   Code   RO         1158    i.fit_lfn           ff.o
    0x00007cf0   0x000000a4   Code   RO          117    i.flagsSet          main.o
    0x00007d94   0x00000170   Code   RO          528    i.float2str         strfunc.o
    0x00007f04   0x00000092   Code   RO         1159    i.follow_path       ff.o
    0x00007f96   0x0000006e   Code   RO          920    i.fuseDataGPS       gps_fona.o
    0x00008004   0x000000ca   Code   RO         1160    i.gen_numname       ff.o
    0x000080ce   0x00000002   PAD
    0x000080d0   0x000000e0   Code   RO          349    i.getBatstat        gsm_fona808.o
    0x000081b0   0x000000e0   Code   RO          921    i.getGPSFix         gps_fona.o
    0x00008290   0x00000058   Code   RO          350    i.getGSMFunc        gsm_fona808.o
    0x000082e8   0x00000054   Code   RO          351    i.getGSMNetworkReg  gsm_fona808.o
    0x0000833c   0x00000050   Code   RO          352    i.getGSMSignalQlty  gsm_fona808.o
    0x0000838c   0x00000104   Code   RO          118    i.getTime           main.o
    0x00008490   0x000000e4   Code   RO         1161    i.get_fat           ff.o
    0x00008574   0x00000008   Code   RO         1005    i.get_fattime       mmc-dk-tm4c123g.o
    0x0000857c   0x0000013c   Code   RO         1162    i.get_fileinfo      ff.o
    0x000086b8   0x00000040   Code   RO          353    i.isGSMOn           gsm_fona808.o
    0x000086f8   0x00000020   Code   RO         1163    i.ld_clust          ff.o
    0x00008718   0x000000c8   Code   RO         1538    i.logData           sd_card.o
    0x000087e0   0x00000150   Code   RO          120    i.main              main.o
    0x00008930   0x00000026   Code   RO         1164    i.mem_cmp           ff.o
    0x00008956   0x0000001a   Code   RO         1165    i.mem_cpy           ff.o
    0x00008970   0x00000014   Code   RO         1166    i.mem_set           ff.o
    0x00008984   0x00000032   Code   RO         1167    i.move_window       ff.o
    0x000089b6   0x00000002   PAD
    0x000089b8   0x00000058   Code   RO         1539    i.openFile          sd_card.o
    0x00008a10   0x00000060   Code   RO          922    i.parseDataGPS      gps_fona.o
    0x00008a70   0x00000074   Code   RO         1168    i.pick_lfn          ff.o
    0x00008ae4   0x0000000c   Code   RO         1006    i.power_off         mmc-dk-tm4c123g.o
    0x00008af0   0x000000b4   Code   RO         1007    i.power_on          mmc-dk-tm4c123g.o
    0x00008ba4   0x0000013c   Code   RO         1169    i.put_fat           ff.o
    0x00008ce0   0x00000050   Code   RO         1008    i.rcvr_datablock    mmc-dk-tm4c123g.o
    0x00008d30   0x00000028   Code   RO         1009    i.rcvr_spi          mmc-dk-tm4c123g.o
    0x00008d58   0x0000000c   Code   RO         1010    i.rcvr_spi_m        mmc-dk-tm4c123g.o
    0x00008d64   0x00000026   Code   RO          531    i.removeInArray     strfunc.o
    0x00008d8a   0x00000068   Code   RO         1170    i.remove_chain      ff.o
    0x00008df2   0x00000002   PAD
    0x00008df4   0x0000003c   Code   RO          611    i.responseRead      uartconfiguration.o
    0x00008e30   0x0000011c   Code   RO         1540    i.sdCard            sd_card.o
    0x00008f4c   0x00000310   Code   RO         1541    i.sdInit            sd_card.o
    0x0000925c   0x000004d4   Code   RO          354    i.sendDataCommands  gsm_fona808.o
    0x00009730   0x0000011c   Code   RO          355    i.sendDataMsg       gsm_fona808.o
    0x0000984c   0x0000017c   Code   RO          356    i.sendSMS           gsm_fona808.o
    0x000099c8   0x00000070   Code   RO         1011    i.send_cmd          mmc-dk-tm4c123g.o
    0x00009a38   0x00000042   Code   RO         1012    i.send_cmd12        mmc-dk-tm4c123g.o
    0x00009a7a   0x00000002   PAD
    0x00009a7c   0x00000064   Code   RO         1013    i.send_initial_clock_train  mmc-dk-tm4c123g.o
    0x00009ae0   0x0000005c   Code   RO         1014    i.set_max_speed     mmc-dk-tm4c123g.o
    0x00009b3c   0x00000050   Code   RO          357    i.simCardDetectOneTry  gsm_fona808.o
    0x00009b8c   0x00000010   Code   RO         1171    i.st_clust          ff.o
    0x00009b9c   0x00000094   Code   RO          533    i.string2float      strfunc.o
    0x00009c30   0x00000026   Code   RO          534    i.stringAppend      strfunc.o
    0x00009c56   0x00000010   Code   RO          535    i.stringLength      strfunc.o
    0x00009c66   0x00000020   Code   RO         1172    i.sum_sfn           ff.o
    0x00009c86   0x000000c8   Code   RO         1173    i.sync_fs           ff.o
    0x00009d4e   0x00000052   Code   RO         1174    i.sync_window       ff.o
    0x00009da0   0x00000048   Code   RO          537    i.truncate          strfunc.o
    0x00009de8   0x000000a2   Code   RO          801    i.ucmptime          ustdlib.o
    0x00009e8a   0x00000002   PAD
    0x00009e8c   0x000000ac   Code   RO          802    i.ulocaltime        ustdlib.o
    0x00009f38   0x00000054   Code   RO          803    i.umktime           ustdlib.o
    0x00009f8c   0x00000026   Code   RO          806    i.usprintf          ustdlib.o
    0x00009fb2   0x00000014   Code   RO          809    i.ustrcmp           ustdlib.o
    0x00009fc6   0x00000010   Code   RO          810    i.ustrlen           ustdlib.o
    0x00009fd6   0x0000003a   Code   RO          812    i.ustrncmp          ustdlib.o
    0x0000a010   0x0000002a   Code   RO          813    i.ustrncpy          ustdlib.o
    0x0000a03a   0x0000002c   Code   RO          814    i.ustrstr           ustdlib.o
    0x0000a066   0x00000002   PAD
    0x0000a068   0x00000200   Code   RO          815    i.ustrtof           ustdlib.o
    0x0000a268   0x000002c4   Code   RO          817    i.uvsnprintf        ustdlib.o
    0x0000a52c   0x00000036   Code   RO         1175    i.validate          ff.o
    0x0000a562   0x00000002   PAD
    0x0000a564   0x00000048   Code   RO          358    i.waitAndCheckResp  gsm_fona808.o
    0x0000a5ac   0x00000034   Code   RO          359    i.waitForUART1      gsm_fona808.o
    0x0000a5e0   0x00000028   Code   RO         1015    i.wait_ready        mmc-dk-tm4c123g.o
    0x0000a608   0x00000038   Code   RO         1542    i.writeToFile       sd_card.o
    0x0000a640   0x0000005e   Code   RO         1016    i.xmit_datablock    mmc-dk-tm4c123g.o
    0x0000a69e   0x00000002   PAD
    0x0000a6a0   0x00000028   Code   RO         1017    i.xmit_spi          mmc-dk-tm4c123g.o
    0x0000a6c8   0x00000028   Data   RO           11    .constdata          cfal96x64x16.o
    0x0000a6f0   0x00001040   Data   RO          122    .constdata          main.o
    0x0000b730   0x00000174   Data   RO          361    .constdata          gsm_fona808.o
    0x0000b8a4   0x0000004c   Data   RO          818    .constdata          ustdlib.o
    0x0000b8f0   0x00000008   Data   RO          924    .constdata          gps_fona.o
    0x0000b8f8   0x0000000d   Data   RO         1177    .constdata          ff.o
    0x0000b905   0x00000001   PAD
    0x0000b906   0x00007738   Data   RO         1434    .constdata          cc932.o
    0x0001303e   0x00000002   PAD
    0x00013040   0x0000001c   Data   RO         1467    .constdata          uartstdio.o
    0x0001305c   0x0000010c   Data   RO         2306    .constdata          driverlib.lib(interrupt.o)
    0x00013168   0x000001cc   Data   RO         2462    .constdata          driverlib.lib(sysctl.o)
    0x00013334   0x00000010   Data   RO         3347    .constdata          grlib.lib(context.o)
    0x00013344   0x000002f8   Data   RO         3379    .constdata          grlib.lib(fontfixed6x8.o)
    0x0001363c   0x000000c8   Data   RO         3380    .constdata          grlib.lib(fontfixed6x8.o)
    0x00013704   0x00000081   Data   RO         4180    .constdata          mc_w.l(ctype_o.o)
    0x00013785   0x00000003   PAD
    0x00013788   0x00000004   Data   RO         4181    .constdata          mc_w.l(ctype_o.o)
    0x0001378c   0x00000011   Data   RO          819    .conststring        ustdlib.o
    0x0001379d   0x000001fa   Data   RO         1544    .conststring        sd_card.o
    0x00013997   0x00000001   PAD
    0x00013998   0x00000020   Data   RO         4216    Region$$Table       anon$$obj.o


    Execution Region RW_IRAM (Base: 0x20000000, Size: 0x000035b0, Max: 0x00008000, ABSOLUTE, COMPRESSED[0x00000170])

    Base Addr    Size         Type   Attr      Idx    E Section Name        Object

    0x20000000   0x00000013   Data   RW           12    .data               cfal96x64x16.o
    0x20000013   0x00000005   PAD
    0x20000018   0x00000068   Data   RW          123    .data               main.o
    0x20000080   0x00000003   Data   RW          308    .data               buttons.o
    0x20000083   0x00000001   PAD
    0x20000084   0x00000164   Data   RW          362    .data               gsm_fona808.o
    0x200001e8   0x0000000a   Data   RW          613    .data               uartconfiguration.o
    0x200001f2   0x00000002   PAD
    0x200001f4   0x00000004   Data   RW          743    .data               scheduler.o
    0x200001f8   0x00000008   Data   RW          925    .data               gps_fona.o
    0x20000200   0x00000005   Data   RW         1018    .data               mmc-dk-tm4c123g.o
    0x20000205   0x00000003   PAD
    0x20000208   0x00000006   Data   RW         1178    .data               ff.o
    0x2000020e   0x00000002   PAD
    0x20000210   0x00000005   Data   RW         1469    .data               uartstdio.o
    0x20000215   0x00000003   PAD
    0x20000218   0x000001b0   Data   RW         1545    .data               sd_card.o
    0x200003c8   0x00000004   Data   RW         3348    .data               grlib.lib(context.o)
    0x200003cc   0x00000004   Data   RW         4159    .data               mc_w.l(errno.o)
    0x200003d0   0x00000252   Zero   RW          121    .bss                main.o
    0x20000622   0x00000002   PAD
    0x20000624   0x0000004c   Zero   RW          360    .bss                gsm_fona808.o
    0x20000670   0x00000100   Zero   RW          612    .bss                uartconfiguration.o
    0x20000770   0x000000df   Zero   RW          923    .bss                gps_fona.o
    0x2000084f   0x00000001   PAD
    0x20000850   0x00000200   Zero   RW         1176    .bss                ff.o
    0x20000a50   0x00000024   Zero   RW         1416    .bss                cmdline.o
    0x20000a74   0x00000b18   Zero   RW         1543    .bss                sd_card.o
    0x2000158c   0x00000020   Zero   RW         3397    .bss                grlib.lib(image.o)
    0x200015ac   0x00000004   PAD
    0x200015b0   0x00002000   Zero   RW           95    STACK               startup_rvmdk.o


==============================================================================

Image component sizes


      Code (inc. data)   RO Data    RW Data    ZI Data      Debug   Object Name

       220         30          0          3          0       1972   buttons.o
       212         16      30520          0          0       2819   cc932.o
      1376         56         40         19          0      38273   cfal96x64x16.o
       124         10          0          0         36       1533   cmdline.o
      8286         84         13          6        512      43052   ff.o
      1826        450          8          8        223       9152   gps_fona.o
      4252        958        372        356         76      18056   gsm_fona808.o
      6018       1010       4160        104        594      42771   main.o
      2132        118          0          5          0      17837   mmc-dk-tm4c123g.o
       160         22          0          4          0       4100   scheduler.o
      2858        950        506        432       2840      12129   sd_card.o
       648        622          0          0       8192        284   startup_rvmdk.o
       680         50          0          0          0       4068   strfunc.o
       102          0          0          0          0       2144   systick.o
       734         96          0         10        256       8643   uartconfiguration.o
       946         54         28          5          0       5324   uartstdio.o
      1856         34         93          0          0       9857   ustdlib.o

    ----------------------------------------------------------------------
     32464       4560      35776        968      12732     222014   Object Totals
         0          0         32          0          0          0   (incl. Generated)
        34          0          4         16          3          0   (incl. Padding)

    ----------------------------------------------------------------------

      Code (inc. data)   RO Data    RW Data    ZI Data      Debug   Library Member Name

       492          0          0          0          0       3593   gpio.o
       444         84          0          0          0       6635   hibernate.o
       100          8        268          0          0       1324   interrupt.o
       308         22        460          0          0       2882   sysctl.o
        38          0          0          0          0       1218   systick.o
         6          0          0          0          0        438   timer.o
        42          0          0          0          0       2142   uart.o
         8          0          0          0          0       1286   charmap.o
       100         12         16          4          0      26127   context.o
         0          0        960          0          0      25462   fontfixed6x8.o
      1546          4          0          0         32       4526   image.o
       180          0          0          0          0       1310   rectangle.o
      1474          0          0          0          0       8662   string.o
       280         28          0          0          0        156   ceil.o
       280         28          0          0          0        156   floor.o
        92          0          0          0          0          0   __dczerorl2.o
       124          0          0          0          0         92   __strtoull.o
        28          0          0          0          0         68   _chval.o
       158          0          0          0          0         92   _strtoul.o
       192          0          0          0          0         96   _strtoull.o
        26          0          0          0          0         80   atoi.o
         8          4        133          0          0         68   ctype_o.o
         0          0          0          0          0          0   entry.o
         0          0          0          0          0          0   entry10a.o
         0          0          0          0          0          0   entry11a.o
         8          4          0          0          0          0   entry2.o
         4          0          0          0          0          0   entry5.o
         0          0          0          0          0          0   entry7b.o
         0          0          0          0          0          0   entry8b.o
         8          4          0          0          0          0   entry9a.o
         8          4          0          4          0         68   errno.o
        30          0          0          0          0          0   handlers.o
        36          8          0          0          0         68   init.o
         0          0          0          0          0          0   iusefp.o
        30          0          0          0          0         68   llshl.o
        36          0          0          0          0         68   llsshr.o
        32          0          0          0          0         68   llushr.o
        36          0          0          0          0         68   memcpya.o
        36          0          0          0          0        108   memseta.o
      2260         86          0          0          0        512   printfa.o
        24          0          0          0          0         68   strcat.o
        28          0          0          0          0         76   strcmp.o
        18          0          0          0          0         68   strcpy.o
        14          0          0          0          0         68   strlen.o
        24          0          0          0          0         76   strncpy.o
       112          0          0          0          0         88   strtol.o
         4          0          0          0          0         68   strtoull.o
        44          0          0          0          0         80   uidiv.o
        98          0          0          0          0         92   uldiv.o
        40          2          0          0          0         68   cdcmple.o
        40          2          0          0          0         68   cdrcmple.o
        56          0          0          0          0         88   d2f.o
       334          0          0          0          0        148   dadd.o
       222          0          0          0          0        100   ddiv.o
       190          0          0          0          0        176   depilogue.o
        62          0          0          0          0         80   dfixi.o
        48          0          0          0          0         68   dfixul.o
        34          0          0          0          0         76   dflti.o
       228          0          0          0          0         96   dmul.o
        38          0          0          0          0         68   f2d.o
       108          0          0          0          0        168   fepilogue.o

    ----------------------------------------------------------------------
     10232        304       1840          8         36      89329   Library Totals
        16          4          3          0          4          0   (incl. Padding)

    ----------------------------------------------------------------------

      Code (inc. data)   RO Data    RW Data    ZI Data      Debug   Library Name

      1430        114        728          0          0      18232   driverlib.lib
      3308         16        976          4         32      67373   grlib.lib
       560         56          0          0          0        312   m_wm.l
      3518        110        133          4          0       2208   mc_w.l
      1400          4          0          0          0       1204   mf_w.l

    ----------------------------------------------------------------------
     10232        304       1840          8         36      89329   Library Totals

    ----------------------------------------------------------------------

==============================================================================


      Code (inc. data)   RO Data    RW Data    ZI Data      Debug   

     42696       4864      37616        976      12768     287771   Grand Totals
     42696       4864      37616        368      12768     287771   ELF Image Totals (compressed)
     42696       4864      37616        368          0          0   ROM Totals

==============================================================================

    Total RO  Size (Code + RO Data)                80312 (  78.43kB)
    Total RW  Size (RW Data + ZI Data)             13744 (  13.42kB)
    Total ROM Size (Code + RO Data + RW Data)      80680 (  78.79kB)

==============================================================================

